

   1               	        .data
   2               	        .align 2
   3               	environ:
   4 0000 0000 0000 	        .long 0
   5               	 	.align	2
   6               	
   7               	.extern main
   8               	.extern exit
   9               	.extern monitor_begin
  10               	.extern hardware_init_hook
  11               	.extern software_init_hook
  12               	.extern atexit
  13               	.extern __do_global_dtors
  14               	.extern __bss_start
  15               	.extern _end
  16               	
  17               	.global start
  18               	
  19               	.text
  20               	.even
  21               		/* See if user supplied their own stack (__stack != 0).  If not, then
  22               		 * default to using the value of %sp as set by the ROM monitor.
  23               		 */
  24 0000 207C 0000 		movel	#__stack, %a0
  24      0000 
  25 0006 B1FC 0000 		cmpl	#0, %a0
  25      0000 
  26 000c 6702      		jbeq    1f
  27 000e 2E48      		movel	%a0, %sp
  28               	1:
  29               		/* set up initial stack frame */
  30 0010 4E56 FFF8 		link	%a6, #-8
  31               	
  32               		/* zero out the bss section */
  33 0014 223C 0000 		movel	#__bss_start, %d1
  33      0000 
  34 001a 203C 0000 		movel	#_end, %d0
  34      0000 
  35 0020 B280      		cmpl	%d0, %d1
  36 0022 6712      		jbeq	3f
  37 0024 2041      		movl	%d1, %a0
  38 0026 9081      		subl	%d1, %d0
  39 0028 5380      		subql	#1, %d0
  40               	2:
  41 002a 4218      		clrb	(%a0)+
  42 002c 51C8 FFFC 		dbra	%d0, 2b
  43 0030 4240      		clrw	%d0
  44 0032 5380      		subql	#1, %d0
  45 0034 64F4      		jbcc	2b
  46               	3:
  47               		/* jmp monitor initialize after making up  bss */
  48 0036 4EF9 0000 		jmp	monitor_begin
  48      0000 
  49               	start:
  50               		/* monitor returns here.
  51               		 * re-setup stack for C programs.
  52               	         * See if user supplied their own stack (__stack != 0).  If not, then


  53               		 * default to using the value of %sp as set by the ROM monitor.
  54               		 */
  55 003c 207C 0000 		movel	#__stack, %a0
  55      0000 
  56 0042 B1FC 0000 		cmpl	#0, %a0
  56      0000 
  57 0048 6702      		jbeq    skip
  58 004a 2E48      		movel	%a0, %sp
  59               	skip:
  60               		/* set up initial stack frame */
  61 004c 4E56 FFF8 		link	%a6, #-8
  62               	
  63               		/*
  64               		 * initialize target specific stuff. Only execute these
  65               		 * functions it they exist.
  66               		 */
  67 0050 41F9 0000 		lea	hardware_init_hook, %a0
  67      0000 
  68 0056 B1FC 0000 		cmpl	#0, %a0
  68      0000 
  69 005c 6702      		jbeq	4f
  70 005e 4E90      		jsr     (%a0)
  71               	4:
  72 0060 41F9 0000 		lea	software_init_hook, %a0
  72      0000 
  73 0066 B1FC 0000 		cmpl	#0, %a0
  73      0000 
  74 006c 6702      		jbeq	5f
  75 006e 4E90      		jsr     (%a0)
  76               	5:
  77               	
  78               		/*
  79               		 * call the main routine from the application to get it going.
  80               		 * main (argc, argv, environ)
  81               		 * we pass argv as a pointer to NULL.
  82               		 */
  83               	
  84               		/* put __do_global_dtors in the atexit list so 
  85               		 * the destructors get run */
  86               	/* 
  87               		movel	#__do_global_dtors,(%sp)
  88               		jsr	atexit
  89               		movel	#__FINI_SECTION__,(%sp)
  90               		jsr	atexit
  91               		jsr	__INIT_SECTION__
  92               	*/
  93               		
  94               		** setup argv, argc and jump into main
  95 0070 4878 0000 	        pea     0
  96 0074 4879 0000 	        pea     environ
  96      0000 
  97 007a 486F 0004 	        pea     %sp@(4)
  98 007e 4878 0000 	        pea     0
  99 0082 4EB9 0000 		jsr	main
  99      0000 
 100 0088 2F00      		movel	%d0, %sp@-
 101               	


 102 008a 4EB9 0000 	        jsr     exit
 102      0000 
 103               	.even




   1               	***************************************************************
   2               	** 各種レジスタ定義
   3               	***************************************************************
   4               	
   5               	***************
   6               	** レジスタ群の先頭
   7               	***************
   8               	.equ REGBASE, 0xFFF000  | DMAP を使用.
   9               	.equ IOBASE,  0x00d00000
  10               	
  11               	***************
  12               	** 割り込み関係のレジスタ
  13               	***************
  14               	.equ IVR,     REGBASE+0x300 | 割り込みベクタレジスタ
  15               	.equ IMR,     REGBASE+0x304 | 割り込みマスクレジスタ
  16               	.equ ISR,     REGBASE+0x30c | 割り込みステータスレジスタ
  17               	.equ IPR,     REGBASE+0x310 | 割り込みペンディングレジスタ
  18               	
  19               	
  20               	***************
  21               	** タイマ関係のレジスタ
  22               	***************
  23               	.equ TCTL1,   REGBASE+0x600 | タイマ1コントロールレジスタ
  24               	.equ TPRER1,  REGBASE+0x602 | タイマ1プリスケーラレジスタ
  25               	.equ TCMP1,   REGBASE+0x604 | タイマ1コンペアレジスタ
  26               	.equ TCN1,    REGBASE+0x608 | タイマ1カウンタレジスタ
  27               	.equ TSTAT1,  REGBASE+0x60a | タイマ1ステータスレジスタ
  28               	***************
  29               	** UART1 (送受信)関係のレジスタ
  30               	***************
  31               	.equ USTCNT1, REGBASE+0x900 | UART1 ステータス / コントロールレジスタ
  32               	.equ UBAUD1,  REGBASE+0x902 | UART1 ボーコントロールレジスタ
  33               	.equ URX1,    REGBASE+0x904 | UART1 受信レジスタ
  34               	.equ UTX1,    REGBASE+0x906 | UART1 送信レジスタ
  35               	
  36               	***************
  37               	** UART2 (送受信)関係のレジスタ
  38               	***************
  39               	.equ USTCNT2, REGBASE+0x910 | UART2 ステータス / コントロールレジスタ
  40               	.equ UBAUD2,  REGBASE+0x912 | UART2 ボーコントロールレジスタ
  41               	.equ URX2,    REGBASE+0x914 | UART2 受信レジスタ
  42               	.equ UTX2,    REGBASE+0x916 | UART2 送信レジスタ
  43               	
  44               	***************
  45               	** LED
  46               	***************
  47               	.equ LED7,  IOBASE+0x000002f | ボード搭載のLED用レジスタ
  48               	.equ LED6,  IOBASE+0x000002d | 使用法については付録 A.4.3.1
  49               	.equ LED5,  IOBASE+0x000002b
  50               	.equ LED4,  IOBASE+0x0000029
  51               	.equ LED3,  IOBASE+0x000003f
  52               	.equ LED2,  IOBASE+0x000003d
  53               	.equ LED1,  IOBASE+0x000003b
  54               	.equ LED0,  IOBASE+0x0000039
  55               	
  56               	**************
  57               	**システムコール番号


  58               	**************
  59               	.equ SYSCALL_NUM_GETSTRING,    1
  60               	.equ SYSCALL_NUM_PUTSTRING,    2
  61               	.equ SYSCALL_NUM_RESET_TIMER,  3
  62               	.equ SYSCALL_NUM_SET_TIMER,    4
  63               	
  64               	***************************************************************
  65               	** 初期化
  66               	***************************************************************
  67               	.section .text
  68               	.even
  69               	.extern start           | crt0.s内のstartをextern
  70               	.global monitor_begin   | 大域変数（関数）の宣言	
  71               	monitor_begin:
  72               			* スーパーバイザ & 各種設定を行っている最中の割込禁止
  73 0000 46FC 2000 			move.w #0x2000,%SR
  74 0004 4FF9 0000 			lea.l SYS_STK_TOP, %SP | Set SSP
  74      0000 
  75               			****************
  76               			** 割り込みコントローラの初期化
  77               			****************
  78 000a 13FC 0040 			move.b #0x40, IVR       | ユーザ割り込みベクタ番号を
  78      00FF F300 
  79               			                        | 0x40+level に設定.
  80 0012 23FC 00FF 			move.l #0x00ffffff, IMR | 全割り込みマスク
  80      FFFF 00FF 
  80      F304 
  81 001c 23FC 00FF 			move.l #0x00ff2ff9, IMR | アンマスクMUART1=>0,MTMR1=>1,UART2=>12
  81      2FF9 00FF 
  81      F304 
  82               			****************
  83               			** 送受信 (UART1) 関係の初期化 ( 割り込みレベルは 4 に固定されている )
  84               			****************
  85 0026 21FC 0000 			move.l #UART1_interrupt, 0x110  | 受信割り込みベクタをセット
  85      0000 0110 
  86 002e 33FC 0000 			move.w #0x0000, USTCNT1 | リセット
  86      00FF F900 
  87 0036 33FC E108 			move.w #0xe108, USTCNT1 | 送受信可能 , パリティなし , 1 stop, 8 bit,
  87      00FF F900 
  88               						            | 受信割り込み許可, 送信割り込み禁止
  89 003e 33FC 0038 			move.w #0x0038, UBAUD1  | baud rate = 230400 bps
  89      00FF F902 
  90               			
  91               			****************
  92               			** 送受信 (UART2) 関係の初期化 ( 割り込みレベルは 5 に固定されている )
  93               			****************
  94 0046 21FC 0000 			move.l #UART2_interrupt, 0x114  | 受信割り込みベクタをセット
  94      0000 0114 
  95 004e 33FC 0000 			move.w #0x0000, USTCNT2 | リセット
  95      00FF F910 
  96 0056 33FC E108 			move.w #0xe108, USTCNT2 | 送受信可能 , パリティなし , 1 stop, 8 bit,
  96      00FF F910 
  97               						            | 受信割り込み許可, 送信割り込み禁止
  98 005e 33FC 0038 			move.w #0x0038, UBAUD2  | baud rate = 230400 bps
  98      00FF F912 
  99               			
 100               			****************


 101               			** タイマ関係の初期化 ( 割り込みレベルは 6 に固定されている )
 102               			*****************
 103 0066 33FC 0004 			move.w #0x0004, TCTL1   | restart, 割り込み不可 ,
 103      00FF F600 
 104               						            | システムクロックの 1/16 を単位として計時,
 105               						            | タイマ使用停止
 106 006e 21FC 0000 			move.l #COMPARE_INTERPUT, 0x118 /* level 6 */
 106      0000 0118 
 107               	
 108 0076 21FC 0000 	        move.l #SYS_CALL, 0x080 /*SYS_CALLの割り込みベクタ設定*/
 108      0000 0080 
 109               			******************************
 110               			** キューの初期化
 111               			******************************
 112 007e 45F9 0000 			lea.l  top00, %a2
 112      0000 
 113 0084 47F9 0000 			lea.l  top10, %a3
 113      0000 
 114 008a 23CA 0000 			move.l %a2, out00
 114      0000 
 115 0090 23CB 0000 			move.l %a3, out10
 115      0000 
 116 0096 23CA 0000 			move.l %a2, in00
 116      0000 
 117 009c 23CB 0000 			move.l %a3, in10
 117      0000 
 118 00a2 23FC 0000 			move.l #0, s00
 118      0000 0000 
 118      0000 
 119 00ac 23FC 0000 			move.l #0, s10
 119      0000 0000 
 119      0000 
 120               			
 121 00b6 45F9 0000 			lea.l  top01, %a2
 121      0000 
 122 00bc 47F9 0000 			lea.l  top11, %a3
 122      0000 
 123 00c2 23CA 0000 			move.l %a2, out01
 123      0000 
 124 00c8 23CB 0000 			move.l %a3, out11
 124      0000 
 125 00ce 23CA 0000 			move.l %a2, in01
 125      0000 
 126 00d4 23CB 0000 			move.l %a3, in11
 126      0000 
 127 00da 23FC 0000 			move.l #0, s01
 127      0000 0000 
 127      0000 
 128 00e4 23FC 0000 			move.l #0, s11		
 128      0000 0000 
 128      0000 
 129               		
 130 00ee 4EF9 0000 			jmp start
 130      0000 
 131               		
 132               	****************************************************************
 133               	***プログラム領域


 134               	****************************************************************
 135               	MAIN:
 136               			**走行モードとレベルの設定(「ユーザモード」への移行処理)
 137 00f4 46FC 0000 			move.w #0x0000, %SR    | USER MODE, LEVEL 0
 138 00f8 4FF9 0000 			lea.l  USR_STK_TOP,%SP | user stackの設定
 138      0000 
 139               			
 140               			
 141               	******************************
 142               	** COMPARE_INTERPUT:	タイマ用のハードウェア割り込みインターフェース
 143               	******************************
 144               	COMPARE_INTERPUT:
 145 00fe 48E7 8000 			movem.l %d0, -(%sp) /* d0退避 */
 146 0102 3039 00FF 			move.w  TSTAT1, %d0 /* TSTATの値をd0へ */
 146      F60A 
 147 0108 0800 0000 			btst	#0, %d0 /* タイマ1ステータスレジスタの0ビット目が0か、否か */
 148 010c 6700 000E 			beq	COMPARE_END /* 0ならコンペアイベントなし、つまりカウンタ値とコンペ
 149 0110 33FC 0000 			move.w	#0x0000, TSTAT1 /* タイマ1ステータスレジスタを0クリア */
 149      00FF F60A 
 150 0118 4EBA 04CE 			jsr	CALL_RP /* CALL_RPを呼び出す */
 151               	
 152               	COMPARE_END:
 153 011c 4CDF 0001 			movem.l (%sp)+, %d0 /* d0復帰 */
 154 0120 4E73      			rte
 155               	
 156               	*************************************
 157               	** UART1_interrupt
 158               	** 送受信割り込みを扱うインターフェース
 159               	*************************************
 160               	/* btst : 指定データの指定ビットが0であるか判断し、0であればCCRのZをセ
 161               	UART1_interrupt:
 162 0122 48E7 7000 			movem.l %d1-%d3, -(%SP)
 163               			/* 受信FIFOが空でないとき(URX[13]==1)受信割り込みであると判断 */
 164               			/* URX[13] ->  0: 受信FIFOが空, 1: 受信FIFOが空でない */
 165 0126 3639 00FF 			move.w URX1, %d3
 165      F904 
 166 012c 1403      			move.b %d3, %d2       |  %d3.wの下位8bitを%d2.bにコピー
 167 012e 0803 000D 			btst.l #13, %d3       |  13ビット目は受信FIFOにデータが存在するか
 168 0132 6700 000C 			beq    CALL_INTERPUT  |  if URX1[13] == 0 (受信FIFOが空のとき)
 169 0136 7200      			move.l #0, %d1        |  ch = 0 を明示
 170 0138 4EBA 0054 			jsr    INTERGET       |  受信割り込み時処理
 171 013c 6000 0014 			bra    END_interrupt
 172               	CALL_INTERPUT:
 173               			/* 送信FIFOがに空のとき(UTX[15]==1)送信割り込みであると判断 */
 174               			/* UTX[15] ->  0: 送信FIFOが空でない, 1: 送信FIFOが空 */
 175 0140 0839 000F 			btst.l #15, UTX1      |  15ビット目は送信FIFOが空であるか
 175      00FF F906 
 176 0148 6700 0008 			beq    END_interrupt  |  if UTX1[15] == 0 (送信FIFOが空でないとき終了)
 177 014c 7200      			move.l #0, %d1        |  ch = 0 を明示
 178 014e 4EBA 0064 			jsr    INTERPUT       |  送信割り込み時処理
 179               	END_interrupt:
 180 0152 4CDF 000E 			movem.l (%SP)+, %d1-%d3
 181 0156 4E73      			rte
 182               			
 183               			
 184               	*************************************
 185               	** UART2_interrupt


 186               	** 送受信割り込みを扱うインターフェース(ポート２)
 187               	*************************************
 188               	/* btst : 指定データの指定ビットが0であるか判断し、0であればCCRのZをセ
 189               	UART2_interrupt:
 190 0158 48E7 7000 			movem.l %d1-%d3, -(%SP)
 191               			/* 受信FIFOが空でないとき(URX[13]==1)受信割り込みであると判断 */
 192               			/* URX[13] ->  0: 受信FIFOが空, 1: 受信FIFOが空でない */
 193 015c 3639 00FF 			move.w URX2, %d3
 193      F914 
 194 0162 1403      			move.b %d3, %d2             |  %d3.wの下位8bitを%d2.bにコピー
 195 0164 0803 000D 			btst.l #13, %d3             |  13ビット目は受信FIFOにデータが存在するか
 196 0168 6700 000C 			beq    CALL_INTERPUT_PORT1  |  if URX2[13] == 0 (受信FIFOが空のとき)
 197 016c 7201      			move.l #1, %d1              |  ch = 1 を明示
 198 016e 4EBA 001E 			jsr    INTERGET             |  受信割り込み時処理
 199 0172 6000 0014 			bra    END_interrupt_PORT1
 200               	CALL_INTERPUT_PORT1:
 201               			/* 送信FIFOがに空のとき(UTX[15]==1)送信割り込みであると判断 */
 202               			/* UTX[15] ->  0: 送信FIFOが空でない, 1: 送信FIFOが空 */
 203 0176 0839 000F 			btst.l #15, UTX2            |  15ビット目は送信FIFOが空であるか
 203      00FF F916 
 204 017e 6700 0008 			beq    END_interrupt_PORT1  |  if UTX1[15] == 0 (送信FIFOが空でないとき終了)
 205 0182 7201      			move.l #1, %d1              |  ch = 1 を明示
 206 0184 4EBA 002E 			jsr    INTERPUT             |  送信割り込み時処理
 207               	END_interrupt_PORT1:
 208 0188 4CDF 000E 			movem.l (%SP)+, %d1-%d3
 209 018c 4E73      			rte
 210               	
 211               	
 212               	*************************************
 213               	** INTERGET  受信割り込みルーチン	
 214               	** 引数     :  %d1.l = チャネル(ch)	
 215               	**             %d2.b = 受信データdata
 216               	**戻り値　なし		
 217               	*************************************
 218               	INTERGET:
 219 018e 2F00      			move.l %d0, -(%SP)
 220 0190 0C41 0000 			cmp    #0, %d1       | ch = 0 であるか確認
 221 0194 6600 000A 			bne    INTERGET_PORT1
 222 0198 7000      			move.l #0, %d0       | %d0 = 受信キュー
 223 019a 1202      			move.b %d2, %d1      | %d1 = 受信したデータ
 224 019c 4EBA 0084 			jsr    IN_Q_0        | %d0 <= 成功したか否か
 225               	INTERGET_PORT1:
 226 01a0 0C41 0001 	        cmp    #1, %d1       | ch = 1 であるか確認
 227 01a4 6600 000A 	        bne    END_INTERGET
 228 01a8 7000      	        move.l #0, %d0       | %d0 = 受信キュー
 229 01aa 1202      			move.b %d2, %d1      | %d1 = 受信したデータ
 230 01ac 4EBA 0120 			jsr    IN_Q_1        | %d0 <= 成功したか否か
 231               	END_INTERGET:
 232 01b0 201F      			move.l (%SP)+, %d0
 233 01b2 4E75      			rts
 234               	
 235               	*************************************
 236               	** INTERPUT :  送信割り込み時の処理	
 237               	** 引数     :  %d1.l = チャネル(ch)	
 238               	*************************************
 239               	INTERPUT:
 240 01b4 2F00      			move.l  %d0, -(%SP)


 241 01b6 46FC 2700 			move.w  #0x2700, %SR   | 走行レベルを７に設定
 242 01ba 0C81 0000 			cmpi.l  #0, %d1        | ch = 0 を確認
 242      0000 
 243 01c0 6600 002A 			bne     INTERPUT_PORT1 | if ch != 0 => 復帰
 244 01c4 7001      	        move.l  #1, %d0
 245 01c6 4EBA 01B2 			jsr     OUT_Q_0        | %d1.b = data
 246 01ca 0C40 0000 			cmpi    #0, %d0        | %d0(OUTQ_0の戻り値) == 0(失敗)
 247 01ce 6600 000E 			bne     TX_DATA        | if so => 送信割り込みをマスク(真下)
 248 01d2 33FC E108 			move.w  #0xe108, USTCNT1
 248      00FF F900 
 249 01da 6000 0042 			bra     END_INTERPUT
 250               	TX_DATA:
 251 01de 0641 0800 			add.w   #0x0800, %d1   | ヘッダを付与
 252 01e2 33C1 00FF 			move.w  %d1, UTX1
 252      F906 
 253 01e8 6000 0034 			bra     END_INTERPUT
 254               	* -------- PORT1 --------------------------
 255               	INTERPUT_PORT1:
 256 01ec 0C81 0000 	        cmpi.l  #1, %d1          | ch = 0 を確認
 256      0001 
 257 01f2 6600 002A 			bne     END_INTERPUT     | if ch != 0 => 復帰
 258 01f6 7001      	        move.l  #1, %d0
 259 01f8 4EBA 022C 			jsr     OUT_Q_1          | %d1.b = data
 260 01fc 0C40 0000 			cmpi    #0, %d0          | %d0(OUTQ_1の戻り値) == 0(失敗)
 261 0200 6600 000E 			bne     TX_DATA_PORT1    | if so => 送信割り込みをマスク(真下)
 262 0204 33FC E108 			move.w  #0xe108, USTCNT2
 262      00FF F910 
 263 020c 6000 0010 			bra     END_INTERPUT
 264               	TX_DATA_PORT1:
 265 0210 0641 0800 			add.w   #0x0800, %d1     | ヘッダを付与
 266 0214 33C1 00FF 			move.w  %d1, UTX2
 266      F916 
 267 021a 6000 0002 			bra     END_INTERPUT
 268               	END_INTERPUT:
 269 021e 201F      			move.l  (%SP)+, %d0
 270 0220 4E75      			rts
 271               	
 272               	******************************
 273               	** INQ0
 274               	**入力キュー番号,d0.l 書き込むデータ,d1.b
 275               	**出力 d0,成功1, 失敗0
 276               	******************************
 277               	IN_Q_0:		
 278 0222 0C00 0000 			cmp.b   #0x00, %d0         |受信キュー、送信キューの判別
 279 0226 6600 0008 			bne     i_loop1
 280 022a 4EBA 000A 			jsr     INQ00
 281 022e 4E75      			rts
 282               	i_loop1:
 283 0230 4EBA 0050 			jsr     INQ10
 284 0234 4E75      			rts
 285               	
 286               	INQ00:                                      |受信キュー
 287 0236 40E7      			move.w  %sr, -(%sp)        |レジスタ退避
 288 0238 48E7 00F8 			movem.l %a0-%a4,-(%sp) 
 289 023c 46FC 2700 			move.w  #0x2700, %SR       |走行レベルを7に設定
 290 0240 2039 0000 			move.l  s00, %d0            |s=256 => %d0=0:失敗
 290      0000 


 291 0246 0480 0000 			sub.l   #0x100, %d0
 291      0100 
 292 024c 6700 002C 			beq     i0_Finish0          |s=256 => 復帰
 293 0250 2279 0000 			movea.l in00, %a1           |書き込み先アドレス=%a1
 293      0000 
 294 0256 12C1      			move.b  %d1, (%a1)+        |データをキューへ入れる,書き込み先アドレスを更
 295 0258 45F9 0000 			lea.l   bottom00, %a2       |次回書き込みアドレスa1<キューデータ領域の末尾
 295      0000 
 296 025e B3CA      			cmp.l   %a2, %a1 
 297 0260 6300 000A 			bls     i0_STEP10
 298 0264 47F9 0000 			lea.l   top00, %a3          |in=top
 298      0000 
 299 026a 224B      			move.l  %a3, %a1
 300               	i0_STEP10:
 301 026c 23C9 0000 			move.l  %a1, in00           |in更新 
 301      0000 
 302 0272 52B9 0000 			add.l   #1, s00             |s+1
 302      0000 
 303 0278 7001      			move.l  #1, %d0            |d0=1 =>成功
 304               	i0_Finish0:
 305 027a 4CDF 1F00 			movem.l (%sp)+, %a0-%a4    |レジスタ復帰
 306 027e 46DF      			move.w  (%sp)+, %sr
 307 0280 4E75      			rts                        |サブルーチン復帰		
 308               	INQ10:                                      |送信キュー
 309 0282 40E7      			move.w  %sr,-(%sp)         |レジスタ退避
 310 0284 48E7 00F8 			movem.l %a0-%a4,-(%sp) 
 311 0288 46FC 2700 			move.w  #0x2700, %SR       |走行レベルを7に設定
 312 028c 2039 0000 			move.l  s10, %d0            |s=256 => %d0=0:失敗
 312      0000 
 313 0292 0480 0000 			sub.l   #0x100, %d0  
 313      0100 
 314 0298 6700 002C 			beq     i1_Finish0         |s=256 => 復帰
 315 029c 2279 0000 			movea.l in10, %a1           |書き込み先アドレス=%a1
 315      0000 
 316 02a2 12C1      			move.b  %d1, (%a1)+        |データをキューへ入れる,書き込み先アドレスを更
 317 02a4 45F9 0000 			lea.l   bottom10, %a2       |次回書き込みアドレスa1<キューデータ領域の末尾
 317      0000 
 318 02aa B3CA      			cmp.l   %a2, %a1 
 319 02ac 6300 000A 			bls     i1_STEP10 
 320 02b0 47F9 0000 			lea.l   top10, %a3          |in=top
 320      0000 
 321 02b6 224B      			move.l  %a3, %a1
 322               		
 323               	i1_STEP10:
 324 02b8 23C9 0000 			move.l  %a1, in10           |in更新
 324      0000 
 325 02be 52B9 0000 			add.l   #1, s10             |s+1
 325      0000 
 326 02c4 7001      			move.l  #1, %d0            |d0=1 =>成功
 327               	i1_Finish0:
 328 02c6 4CDF 1F00 			movem.l (%sp)+, %a0-%a4    |レジスタ復帰
 329 02ca 46DF      			move.w  (%sp)+, %sr
 330 02cc 4E75      	rts                        |サブルーチン復帰
 331               	
 332               	
 333               	******************************
 334               	** INQ1


 335               	**入力キュー番号,d0.l 書き込むデータ,d1.b
 336               	**出力 d0,成功1, 失敗0
 337               	******************************
 338               	IN_Q_1:		
 339 02ce 0C00 0000 			cmp.b   #0x00, %d0         |受信キュー、送信キューの判別
 340 02d2 6600 0008 			bne     i_loop11
 341 02d6 4EBA 000A 			jsr     INQ01
 342 02da 4E75      			rts
 343               	i_loop11:
 344 02dc 4EBA 0050 			jsr     INQ11
 345 02e0 4E75      			rts
 346               	
 347               	INQ01:                                      |受信キュー
 348 02e2 40E7      			move.w  %sr, -(%sp)        |レジスタ退避
 349 02e4 48E7 00F8 			movem.l %a0-%a4,-(%sp) 
 350 02e8 46FC 2700 			move.w  #0x2700, %SR       |走行レベルを7に設定
 351 02ec 2039 0000 			move.l  s01, %d0            |s=256 => %d0=0:失敗
 351      0000 
 352 02f2 0480 0000 			sub.l   #0x100, %d0
 352      0100 
 353 02f8 6700 002C 			beq     i0_Finish1          |s=256 => 復帰
 354 02fc 2279 0000 			movea.l in01, %a1           |書き込み先アドレス=%a1
 354      0000 
 355 0302 12C1      			move.b  %d1, (%a1)+        |データをキューへ入れる,書き込み先アドレスを更
 356 0304 45F9 0000 			lea.l   bottom01, %a2       |次回書き込みアドレスa1<キューデータ領域の末尾
 356      0000 
 357 030a B3CA      			cmp.l   %a2, %a1 
 358 030c 6300 000A 			bls     i0_STEP11
 359 0310 47F9 0000 			lea.l   top01, %a3          |in=top
 359      0000 
 360 0316 224B      			move.l  %a3, %a1
 361               	i0_STEP11:
 362 0318 23C9 0000 			move.l  %a1, in01           |in更新 
 362      0000 
 363 031e 52B9 0000 			add.l   #1, s01             |s+1
 363      0000 
 364 0324 7001      			move.l  #1, %d0            |d0=1 =>成功
 365               	i0_Finish1:
 366 0326 4CDF 1F00 			movem.l (%sp)+, %a0-%a4    |レジスタ復帰
 367 032a 46DF      			move.w  (%sp)+, %sr
 368 032c 4E75      			rts                        |サブルーチン復帰		
 369               	INQ11:                                      |送信キュー
 370 032e 40E7      			move.w  %sr,-(%sp)         |レジスタ退避
 371 0330 48E7 00F8 			movem.l %a0-%a4,-(%sp) 
 372 0334 46FC 2700 			move.w  #0x2700, %SR       |走行レベルを7に設定
 373 0338 2039 0000 			move.l  s11, %d0            |s=256 => %d0=0:失敗
 373      0000 
 374 033e 0480 0000 			sub.l   #0x100, %d0  
 374      0100 
 375 0344 6700 002C 			beq     i1_Finish1          |s=256 => 復帰
 376 0348 2279 0000 			movea.l in11, %a1           |書き込み先アドレス=%a1
 376      0000 
 377 034e 12C1      			move.b  %d1, (%a1)+        |データをキューへ入れる,書き込み先アドレスを更
 378 0350 45F9 0000 			lea.l   bottom11, %a2       |次回書き込みアドレスa1<キューデータ領域の末尾
 378      0000 
 379 0356 B3CA      			cmp.l   %a2, %a1 
 380 0358 6300 000A 			bls     i1_STEP11 


 381 035c 47F9 0000 			lea.l   top11, %a3          |in=top
 381      0000 
 382 0362 224B      			move.l  %a3, %a1
 383               		
 384               	i1_STEP11:
 385 0364 23C9 0000 			move.l  %a1, in11           |in更新
 385      0000 
 386 036a 52B9 0000 			add.l   #1, s11             |s+1
 386      0000 
 387 0370 7001      			move.l  #1, %d0            |d0=1 =>成功
 388               	i1_Finish1:
 389 0372 4CDF 1F00 			movem.l (%sp)+, %a0-%a4    |レジスタ復帰
 390 0376 46DF      			move.w  (%sp)+, %sr
 391 0378 4E75      			rts
 392               	
 393               	
 394               	
 395               	******************************
 396               	** OUTQ0
 397               	**入力:キュー番号:d0.l
 398               	**出力:d0:0失敗, d0:1成功
 399               	**取り出したデータ:d1.b
 400               	******************************
 401               	OUT_Q_0:
 402 037a 0C00 0000 			cmp.b #0x00, %d0                |受信キュー、送信キューの判別
 403 037e 6600 0008 			bne o_loop10
 404 0382 4EBA 000A 			jsr OUTQ00
 405 0386 4E75      			rts
 406               	o_loop10:
 407 0388 4EBA 0050 			jsr OUTQ10
 408 038c 4E75      			rts
 409               	OUTQ00:
 410 038e 40E7      			move.w %sr,-(%sp)               |レジスタ退避
 411 0390 48E7 00F8 			movem.l %a0-%a4,-(%sp)
 412 0394 46FC 2700 			move.w  #0x2700, %SR            |走行レベルを7に設定
 413 0398 2039 0000 			move.l  s00, %d0                 |s=0 => %d0=0:失敗
 413      0000 
 414 039e 0C80 0000 			cmp.l  #0x00, %d0
 414      0000 
 415 03a4 6700 002C 			beq     o0_Finish0               |s=0 => 復帰
 416 03a8 2279 0000 			movea.l out00, %a1               |取り出し先アドレス=%a1
 416      0000 
 417 03ae 1219      			move.b  (%a1)+, %d1             |キューからデータを取り出し(%d1),取り出し先ア
 418 03b0 45F9 0000 			lea.l bottom00, %a2              |次回取り出すアドレスa1<キューデータ領域の末
 418      0000 
 419 03b6 B3CA      			cmp.l  %a2, %a1
 420 03b8 6300 000A 			bls     o0_STEP10
 421 03bc 47F9 0000 			lea.l top00, %a3                 |out=top
 421      0000 
 422 03c2 224B      			move.l  %a3, %a1
 423               	o0_STEP10:
 424 03c4 23C9 0000 			move.l %a1, out00                |out更新
 424      0000 
 425 03ca 53B9 0000 			sub.l #1, s00                    |s--
 425      0000 
 426 03d0 7001      			move.l  #1, %d0                 |d0=1 =>成功
 427               	o0_Finish0:


 428 03d2 4CDF 1F00 			movem.l (%sp)+, %a0-%a4         |レジスタ復帰
 429 03d6 46DF      			move.w (%sp)+, %sr
 430 03d8 4E75      			rts                             |サブルーチン復帰
 431               	OUTQ10:
 432 03da 40E7      			move.w %sr,-(%sp)
 433 03dc 48E7 00F8 			movem.l %a0-%a4,-(%sp)          |レジスタ退避
 434 03e0 46FC 2700 			move.w  #0x2700, %SR            |走行レベルを7に設定
 435 03e4 2039 0000 			move.l  s10, %d0                 |s=0 => %d0=0:失敗
 435      0000 
 436 03ea 0C80 0000 			cmp.l #0x00, %d0
 436      0000 
 437 03f0 6700 002C 			beq     o1_Finish0               |s=0 => 復帰
 438 03f4 2279 0000 			movea.l out10, %a1               |取り出し先アドレス=%a1
 438      0000 
 439 03fa 1219      			move.b  (%a1)+, %d1             |キューからデータを取り出し(%d1),取り出し先ア
 440 03fc 45F9 0000 			lea.l bottom10, %a2              |次回取り出すアドレスa1<キューデータ領域の末
 440      0000 
 441 0402 B3CA      			cmp.l  %a2, %a1
 442 0404 6300 000A 			bls     o1_STEP10
 443 0408 47F9 0000 			lea.l top10, %a3                 |out=top
 443      0000 
 444 040e 224B      			move.l  %a3, %a1
 445               	o1_STEP10:
 446 0410 23C9 0000 			move.l %a1, out10                |out更新
 446      0000 
 447 0416 53B9 0000 			sub.l #1, s10                    |s--
 447      0000 
 448 041c 7001      			move.l  #1, %d0                 |d0=1 =>成功
 449               	o1_Finish0:
 450 041e 4CDF 1F00 			movem.l (%sp)+, %a0-%a4         |レジスタ復帰
 451 0422 46DF      			move.w (%sp)+, %sr
 452 0424 4E75      			rts                             |サブルーチン復帰
 453               	
 454               	
 455               	******************************
 456               	** OUTQ1
 457               	**入力:キュー番号:d0.l
 458               	**出力:d0:0失敗, d0:1成功
 459               	**取り出したデータ:d1.b
 460               	******************************
 461               	OUT_Q_1:
 462 0426 0C00 0000 			cmp.b #0x00, %d0                |受信キュー、送信キューの判別
 463 042a 6600 0008 			bne o_loop11
 464 042e 4EBA 000A 			jsr OUTQ01
 465 0432 4E75      			rts
 466               	o_loop11:
 467 0434 4EBA 0050 			jsr OUTQ11
 468 0438 4E75      			rts
 469               	OUTQ01:
 470 043a 40E7      			move.w %sr,-(%sp)               |レジスタ退避
 471 043c 48E7 00F8 			movem.l %a0-%a4,-(%sp)
 472 0440 46FC 2700 			move.w  #0x2700, %SR            |走行レベルを7に設定
 473 0444 2039 0000 			move.l  s01, %d0                 |s=0 => %d0=0:失敗
 473      0000 
 474 044a 0C80 0000 			cmp.l  #0x00, %d0
 474      0000 
 475 0450 6700 002C 			beq     o0_Finish1               |s=0 => 復帰


 476 0454 2279 0000 			movea.l out01, %a1               |取り出し先アドレス=%a1
 476      0000 
 477 045a 1219      			move.b  (%a1)+, %d1             |キューからデータを取り出し(%d1),取り出し先ア
 478 045c 45F9 0000 			lea.l bottom01, %a2              |次回取り出すアドレスa1<キューデータ領域の末
 478      0000 
 479 0462 B3CA      			cmp.l  %a2, %a1
 480 0464 6300 000A 			bls     o0_STEP11
 481 0468 47F9 0000 			lea.l top01, %a3                 |out=top
 481      0000 
 482 046e 224B      			move.l  %a3, %a1
 483               	o0_STEP11:
 484 0470 23C9 0000 			move.l %a1, out01                |out更新
 484      0000 
 485 0476 53B9 0000 			sub.l #1, s01                    |s--
 485      0000 
 486 047c 7001      			move.l  #1, %d0                 |d0=1 =>成功
 487               	o0_Finish1:
 488 047e 4CDF 1F00 			movem.l (%sp)+, %a0-%a4         |レジスタ復帰
 489 0482 46DF      			move.w (%sp)+, %sr
 490 0484 4E75      			rts                             |サブルーチン復帰
 491               	OUTQ11:
 492 0486 40E7      			move.w %sr,-(%sp)
 493 0488 48E7 00F8 			movem.l %a0-%a4,-(%sp)          |レジスタ退避
 494 048c 46FC 2700 			move.w  #0x2700, %SR            |走行レベルを7に設定
 495 0490 2039 0000 			move.l  s11, %d0                 |s=0 => %d0=0:失敗
 495      0000 
 496 0496 0C80 0000 			cmp.l #0x00, %d0
 496      0000 
 497 049c 6700 002C 			beq     o1_Finish1               |s=0 => 復帰
 498 04a0 2279 0000 			movea.l out11, %a1               |取り出し先アドレス=%a1
 498      0000 
 499 04a6 1219      			move.b  (%a1)+, %d1             |キューからデータを取り出し(%d1),取り出し先ア
 500 04a8 45F9 0000 			lea.l bottom11, %a2              |次回取り出すアドレスa1<キューデータ領域の末
 500      0000 
 501 04ae B3CA      			cmp.l  %a2, %a1
 502 04b0 6300 000A 			bls     o1_STEP11
 503 04b4 47F9 0000 			lea.l top11, %a3                 |out=top
 503      0000 
 504 04ba 224B      			move.l  %a3, %a1
 505               	o1_STEP11:
 506 04bc 23C9 0000 			move.l %a1, out11                |out更新
 506      0000 
 507 04c2 53B9 0000 			sub.l #1, s11                    |s--
 507      0000 
 508 04c8 7001      			move.l  #1, %d0                 |d0=1 =>成功
 509               	o1_Finish1:
 510 04ca 4CDF 1F00 			movem.l (%sp)+, %a0-%a4         |レジスタ復帰
 511 04ce 46DF      			move.w (%sp)+, %sr
 512 04d0 4E75      			rts                             |サブルーチン復帰
 513               	
 514               	
 515               	
 516               	
 517               	
 518               	
 519               	*************************************
 520               	** PUTSTRING  送信割り込みの処理	


 521               	** 引数     :  %d1.l = チャネル(ch)	
 522               	**             %d2.l = データ読み込み先の先頭アドレスp いったんa6にさせて
 523               	**             %d3.l = 送信するデータ数size
 524               	** 出力     :  %d0.l = 取り出した要素数
 525               	*************************************
 526               	PUTSTRING:
 527 04d2 48E7 0804 			movem.l %d4/%a5, -(%sp)
 528 04d6 0C41 0000 			cmp    #0, %d1         | ch = 0 であるか確認
 529 04da 6600 002E 			bne    PUTSTRING_1   | そうでなければ復帰
 530 04de 7800      			move.l #0, %d4         | sz = 0 (取った要素数)
 531 04e0 2A42      			move.l  %d2, %a5       | i  = %d2 = 読み込み先 address
 532 04e2 0C43 0000 			cmp    #0, %d3         | 取り出すべきサイズが０であるか確認
 533 04e6 6700 0056 			beq    END2_PUTSTRING  | 0であれば復帰
 534               	LOOP0_PUTSTRING:
 535 04ea B644      			cmp    %d4, %d3        | 取るべき要素数と取った要素数を比較
 536 04ec 6700 0048 			beq    END3_PUTSTRING  | 同等であれば復帰
 537 04f0 103C 0001 			move.b #1, %d0         | %d0 = 1 (キューの番号：送信キュー)
 538 04f4 1215      			move.b (%a5), %d1      | %d1 = 読み込んだ値
 539 04f6 4EBA FD2A 			jsr    IN_Q_0
 540 04fa 0C40 0000 			cmp    #0, %d0         | IN_Qの復帰値が成功（１）であるか確認
 541 04fe 6700 0036 	                beq    END3_PUTSTRING  | 失敗ならば復帰
 542 0502 5244      			add    #1, %d4         | sz ++ 
 543 0504 524D      			add    #1, %a5         | i  ++ 
 544 0506 6000 FFE2 			bra    LOOP0_PUTSTRING
 545               	
 546               	**ch = 1
 547               	PUTSTRING_1:
 548 050a 7800      	                move.l #0, %d4         | sz = 0 (取った要素数)
 549 050c 2A42      			move.l  %d2, %a5       | i  = %d2 = 読み込み先 address
 550 050e 0C43 0000 			cmp    #0, %d3         | 取り出すべきサイズが０であるか確認
 551 0512 6700 002A 			beq    END2_PUTSTRING  | 0であれば復帰
 552               	LOOP1_PUTSTRING:
 553 0516 B644      			cmp    %d4, %d3        | 取るべき要素数と取った要素数を比較
 554 0518 6700 001C 			beq    END3_PUTSTRING  | 同等であれば復帰
 555 051c 103C 0001 			move.b #1, %d0         | %d0 = 1 (キューの番号：送信キュー)
 556 0520 1215      			move.b (%a5), %d1      | %d1 = 読み込んだ値
 557 0522 4EBA FDAA 			jsr    IN_Q_1
 558 0526 0C40 0000 			cmp    #0, %d0         | IN_Qの復帰値が成功（１）であるか確認
 559 052a 6700 000A 	                beq    END3_PUTSTRING  | 失敗ならば復帰
 560 052e 5244      			add    #1, %d4         | sz ++ 
 561 0530 524D      			add    #1, %a5         | i  ++ 
 562 0532 6000 FFE2 			bra    LOOP1_PUTSTRING 
 563               	
 564               	END3_PUTSTRING:
 565               	                
 566 0536 33FC E10C 			move.w #0xe10c, USTCNT1 | 送信割り込みを許可（アンマスク）
 566      00FF F900 
 567               	END2_PUTSTRING:
 568 053e 2004      			move.l %d4, %d0         | 返り値　%d0 = sz (取った要素数)
 569               	END_PUTSTRING:
 570 0540 4CDF 2010 			movem.l (%sp)+, %d4/%a5
 571 0544 4E75      			rts
 572               	
 573               	
 574               			
 575               	*************************************
 576               	** GETSTRING  受信割り込みの処理	


 577               	** 引数     :  %d1.l = チャネル(ch)
 578               	** 	       %d2.l = データ書き込み先の先頭アドレスp
 579               	**             %d3.l = 取り出すデータ数size
 580               	** 出力     :　%d0.l = 実際に取り出したデータ数		
 581               	*************************************
 582               	GETSTRING:
 583 0546 48E7 0804 			movem.l %d4/%a5, -(%sp)
 584 054a 0C41 0000 			cmp    #0, %d1           | ch = 0 であるか確認
 585 054e 6600 0028 			bne    GETSTRING_1     | そうでなければ復帰
 586 0552 7800      			move.l #0, %d4           | sz = 0 (取った要素数)
 587 0554 2A42      			move.l %d2, %a5          | i  = %d2 = 書き込み先 address
 588               	LOOP0_GETSTRING:	
 589 0556 B644      			cmp    %d4, %d3          | 取るべき要素数と取り出した要素数を比較
 590 0558 6700 0018 			beq    END0_GETSTRING    | 同等であれば復帰
 591 055c 7000      			move.l #0, %d0           | %d0 = 0 (キューの番号：受信キュー)
 592 055e 4EBA FE1A 			jsr    OUT_Q_0            | OUT_Q ==> %d0: success?, %d1: 取り出したデータ
 593 0562 0C40 0000 			cmp    #0, %d0           | OUT_Qの復帰値が成功(1)であるか確認 
 594 0566 6700 000A 			beq    END0_GETSTRING    | 失敗ならば復帰
 595 056a 1AC1      			move.b %d1, (%a5)+       | 書き込み先にデータを書き込み
 596 056c 5244      			add    #1, %d4           | sz ++
 597 056e 6000 FFE6 			bra    LOOP0_GETSTRING
 598               	END0_GETSTRING:
 599 0572 2004      			move.l   %d4, %d0          | 返り値 %d0 = sz (実際に取り出したデータ数)
 600 0574 6000 0024 	                bra END_GETSTRING
 601               	
 602               	**ch = 1
 603               	GETSTRING_1:
 604 0578 7800      	                move.l #0, %d4           | sz = 0 (取った要素数)
 605 057a 2A42      			move.l %d2, %a5          | i  = %d2 = 書き込み先 address
 606               	LOOP1_GETSTRING:	
 607 057c B644      			cmp    %d4, %d3          | 取るべき要素数と取り出した要素数を比較
 608 057e 6700 0018 			beq    END1_GETSTRING    | 同等であれば復帰
 609 0582 7000      			move.l #0, %d0           | %d0 = 0 (キューの番号：受信キュー)
 610 0584 4EBA FEA0 			jsr    OUT_Q_1             | OUT_Q ==> %d0: success?, %d1: 取り出したデータ
 611 0588 0C40 0000 			cmp    #0, %d0           | OUT_Qの復帰値が成功(1)であるか確認 
 612 058c 6700 000A 			beq    END1_GETSTRING    | 失敗ならば復帰
 613 0590 1AC1      			move.b %d1, (%a5)+       | 書き込み先にデータを書き込み
 614 0592 5244      			add    #1, %d4           | sz ++
 615 0594 6000 FFE6 			bra    LOOP1_GETSTRING
 616               	END1_GETSTRING:
 617 0598 2004      			move.l   %d4, %d0          | 返り値 %d0 = sz (実際に取り出したデータ数)
 618               	
 619               	END_GETSTRING:
 620 059a 4CDF 2010 			movem.l (%sp)+, %d4/%a5
 621 059e 4E75      			rts
 622               	
 623               	
 624               	******************************
 625               	** RESET_TIMER():	タイマ割り込み→不可、タイマ→停止
 626               	******************************
 627               	RESET_TIMER:
 628 05a0 33FC 0004 			move.w	#0x0004, TCTL1 /* タイマ1コントロールレジスタに0x0004を設定→割り込
 628      00FF F600 
 629 05a8 4E75      			rts
 630               			
 631               	******************************
 632               	** SET_TIMER(t,p):	タイマ割り込み時に呼び出すルーチン設定 


 633               	**			タイマ割り込み周期tを設定（t * 0.1 msec毎に割り込み発生）
 634               	**			タイマ使用およびタイマ割り込み	
 635               	** 引数 :		t→%d1.w:	タイマの発生周期
 636               	** 			p→%d2.l	割り込み時に起動するルーチンの先頭アドレス			
 637               	******************************
 638               	SET_TIMER:
 639 05aa 23C2 0000 			move.l	%d2, task_p /* 割り込み時に起動するルーチンの先頭アドレスpを大域
 639      0000 
 640 05b0 33FC 00CE 			move.w	#0xce, TPRER1 /* 0.1msec進むとカウンタが1増えるようにする */
 640      00FF F602 
 641 05b8 33C1 00FF 			move.w	%d1, TCMP1 /* t秒周期に設定 */
 641      F604 
 642 05be 33FC 0015 			move.w  #0x0015, TCTL1 /* タイマ1コントロールレジスタに0x0015を設定→割り込
 642      00FF F600 
 643 05c6 13FC 0074 			move.b	#'t', LED7
 643      00D0 002F 
 644 05ce 13FC 0065 			move.b	#'e', LED6
 644      00D0 002D 
 645 05d6 13FC 0073 			move.b	#'s', LED5
 645      00D0 002B 
 646 05de 13FC 0074 			move.b	#'t', LED4	
 646      00D0 0029 
 647 05e6 4E75      			rts
 648               	
 649               	******************************
 650               	** CALL_RP():	タイマ割り込み時に処理すべきルーチン呼び出し
 651               	******************************
 652               	CALL_RP:
 653 05e8 48E7 0080 			movem.l	%a0, -(%sp)
 654 05ec 2079 0000 			movea.l task_p, %a0
 654      0000 
 655 05f2 4E90      			jsr (%a0)
 656 05f4 4CDF 0100 			movem.l (%sp)+, %a0
 657 05f8 4E75      			rts
 658               	
 659               	*******************************************
 660               	** システムコールインターフェース
 661               	** 入力：
 662               	**　　　　システムコール番号   : %d0.l
 663               	**　　　　システムコールの引数 : %d1以降
 664               	** 出力：
 665               	**　　　　システムコール呼び出しの結果 : %d0.l
 666               	** ========================================		
 667               	**        +---+---------------+
 668               	**        | 1 | GETSTRING     |
 669               	**        | 2 | PUTSTRING     |
 670               	**        | 3 | RESET_TIMER   |
 671               	**        | 4 | SET_TIMER     |
 672               	**        +---+---------------+
 673               	*******************************************
 674               	SYS_CALL:
 675               			
 676               	CALL_1:		
 677 05fa 0C80 0000 			cmpi.l #1, %d0   | コール番号の確認(no.1)
 677      0001 
 678 0600 6600 000A 			bne    CALL_2    | 異なれば他のコール番号の確認
 679 0604 4EBA FF40 			jsr    GETSTRING | 対応するシステムコールを呼び出し


 680 0608 6000 0034 	                bra    END_SYS_CALL
 681               	CALL_2:
 682 060c 0C80 0000 			cmpi.l #2, %d0
 682      0002 
 683 0612 6600 000A 			bne    CALL_3
 684 0616 4EBA FEBA 			jsr    PUTSTRING
 685 061a 6000 0022 	                bra    END_SYS_CALL
 686               	CALL_3:
 687 061e 0C80 0000 			cmpi.l #3, %d0
 687      0003 
 688 0624 6600 000A 			bne    CALL_4
 689 0628 4EBA FF76 			jsr    RESET_TIMER
 690 062c 6000 0010 	                bra    END_SYS_CALL
 691               	CALL_4:
 692 0630 0C80 0000 			cmpi.l #4, %d0
 692      0004 
 693 0636 6600 0006 			bne    END_SYS_CALL
 694 063a 4EBA FF6E 			jsr    SET_TIMER
 695               	END_SYS_CALL:	
 696 063e 4E73      			rte		
 697               	***************************************************************
 698               	** スタック領域の確保
 699               	***************************************************************
 700               	.section .bss
 701               	.even
 702               	SYS_STK:
 703 0000 0000 0000 			.ds.b  0x4000 | システムスタック領域
 703      0000 0000 
 703      0000 0000 
 703      0000 0000 
 703      0000 0000 
 704               			.even
 705               	SYS_STK_TOP: 		      | システムスタック領域の最後尾
 706               	
 707 4000 0000 0000 	task_p:		.ds.l 1	      | タイマ割り込み時に起動するルーチン先頭アドレス代
 708               	****************************************************************
 709               	***初期値のあるデータ領域***************************************************************
 710               	.section .data
 711               	TMSG:
 712 0000 2A2A 2A2A 			.ascii  "******\r\n"      | \r:行頭へ(キャリッジリターン)
 712      2A2A 0D0A 
 713               			.even                     | \n:次の行へ(ラインフィード)
 714               	TTC:
 715 0008 0000      			.dc.w  0
 716               			.even
 717               	
 718               	****************************************************************
 719               	***初期値の無いデータ領域***************************************************************
 720               	.section .bss
 721               	BUF:
 722 4004 0000 0000 			.ds.b 256      |BUF[256]
 722      0000 0000 
 722      0000 0000 
 722      0000 0000 
 722      0000 0000 
 723               			.even
 724               	USR_STK:


 725 4104 0000 0000 			.ds.b 0x4000   |ユーザスタック領域
 725      0000 0000 
 725      0000 0000 
 725      0000 0000 
 725      0000 0000 
 726               			.even
 727               	USR_STK_TOP:                   |ユーザスタック領域の最後尾		
 728               	
 729               	
 730               	******************************
 731               	** キュー用のメモリ領域確保
 732               	******************************
 733               	.section .data
 734               			.equ  B_SIZE, 256
 735               	top00:
 736 000a 0000 0000 			.ds.b B_SIZE-1
 736      0000 0000 
 736      0000 0000 
 736      0000 0000 
 736      0000 0000 
 737               	bottom00:
 738 0109 00        			.ds.b 1
 739               	top10:
 740 010a 0000 0000 			.ds.b B_SIZE-1
 740      0000 0000 
 740      0000 0000 
 740      0000 0000 
 740      0000 0000 
 741               	bottom10:
 742 0209 00        			.ds.b 1
 743               	out00:
 744 020a 0000 0000 			.ds.l 1
 745               	out10:
 746 020e 0000 0000 			.ds.l 1
 747               	in00:
 748 0212 0000 0000 			.ds.l 1
 749               	in10:
 750 0216 0000 0000 			.ds.l 1
 751               	s00:
 752 021a 0000 0000 			.ds.l 1
 753               	s10:
 754 021e 0000 0000 			.ds.l 1
 755               	
 756               	top01:
 757 0222 0000 0000 			.ds.b B_SIZE-1
 757      0000 0000 
 757      0000 0000 
 757      0000 0000 
 757      0000 0000 
 758               	bottom01:
 759 0321 00        			.ds.b 1
 760               	top11:
 761 0322 0000 0000 			.ds.b B_SIZE-1
 761      0000 0000 
 761      0000 0000 
 761      0000 0000 
 761      0000 0000 


 762               	bottom11:
 763 0421 00        			.ds.b 1
 764               	out01:
 765 0422 0000 0000 			.ds.l 1
 766               	out11:
 767 0426 0000 0000 			.ds.l 1
 768               	in01:
 769 042a 0000 0000 			.ds.l 1
 770               	in11:
 771 042e 0000 0000 			.ds.l 1
 772               	s01:
 773 0432 0000 0000 			.ds.l 1
 774               	s11:
 775 0436 0000 0000 			.ds.l 1
 776               	
 777               	
 778               	
 779               	.end




   1               	#NO_APP
   2               		.file	"csys68k.c"
   3               		.text
   4               	.Ltext0:
   5               		.cfi_sections	.debug_frame
   6               		.align	2
   7               		.globl	read
   8               		.type	read, @function
   9               	read:
  10               	.LFB0:
  11               		.file 1 "csys68k.c"
   1:csys68k.c     **** #include <stdarg.h>
   2:csys68k.c     **** #include <fcntl.h>
   3:csys68k.c     **** #include <errno.h>
   4:csys68k.c     **** 
   5:csys68k.c     **** 
   6:csys68k.c     **** extern void outbyte(int a,unsigned char c);
   7:csys68k.c     **** extern char inbyte(int b);
   8:csys68k.c     **** 
   9:csys68k.c     **** int read(int fd, char *buf, int nbytes){
  12               		.loc 1 9 0
  13               		.cfi_startproc
  14               	.LVL0:
  15 0000 598F      		subq.l #4,%sp
  16               		.cfi_def_cfa_offset 8
  17 0002 48E7 3838 		movem.l #14392,-(%sp)
  18               		.cfi_def_cfa_offset 32
  19               		.cfi_offset 2, -32
  20               		.cfi_offset 3, -28
  21               		.cfi_offset 4, -24
  22               		.cfi_offset 10, -20
  23               		.cfi_offset 11, -16
  24               		.cfi_offset 12, -12
  25 0006 202F 0020 		move.l 32(%sp),%d0
  26 000a 286F 0024 		move.l 36(%sp),%a4
  27 000e 282F 0028 		move.l 40(%sp),%d4
  10:csys68k.c     ****   int ch;
  11:csys68k.c     **** 
  12:csys68k.c     ****   switch(fd){
  28               		.loc 1 12 0
  29 0012 7203      		moveq #3,%d1
  30 0014 B280      		cmp.l %d0,%d1
  31 0016 6716      		jeq .L12
  32 0018 7204      		moveq #4,%d1
  33 001a B280      		cmp.l %d0,%d1
  34 001c 6700 00C0 		jeq .L4
  35 0020 4A80      		tst.l %d0
  36 0022 670A      		jeq .L12
  13:csys68k.c     ****   case 0:
  14:csys68k.c     ****   case 3:
  15:csys68k.c     ****       ch = 0;
  16:csys68k.c     ****       break;
  17:csys68k.c     ****       
  18:csys68k.c     ****   case 4:
  19:csys68k.c     ****       ch = 1;
  20:csys68k.c     ****       break;
  21:csys68k.c     ****       


  22:csys68k.c     ****   default:
  23:csys68k.c     ****       return EBADF;
  37               		.loc 1 23 0
  38 0024 7009      		moveq #9,%d0
  39               	.L2:
  24:csys68k.c     ****       break;
  25:csys68k.c     ****   }
  26:csys68k.c     ****   char c;
  27:csys68k.c     ****   int  i;
  28:csys68k.c     **** 
  29:csys68k.c     ****   for (i = 0; i < nbytes; i++) {
  30:csys68k.c     ****     c = inbyte(ch);
  31:csys68k.c     **** 
  32:csys68k.c     ****     if (c == '\r' || c == '\n'){ /* CR -> CRLF */
  33:csys68k.c     ****         outbyte(ch, '\r');
  34:csys68k.c     ****         outbyte(ch, '\n');
  35:csys68k.c     ****         *(buf + i) = '\n';
  36:csys68k.c     **** 
  37:csys68k.c     ****  /* } else if (c == '\x8'){ */  /* backspace \x8 */
  38:csys68k.c     ****     } else if (c == '\x7f'){    /* backspace \x8 -> \x7f (by terminal config.) */
  39:csys68k.c     ****       if (i > 0){
  40:csys68k.c     ****           outbyte(ch, '\x8'); /* bs  */
  41:csys68k.c     ****           outbyte(ch, ' ');   /* spc */
  42:csys68k.c     ****           outbyte(ch, '\x8'); /* bs  */
  43:csys68k.c     **** 	      i--;
  44:csys68k.c     ****       }
  45:csys68k.c     ****       i--;
  46:csys68k.c     ****       continue;
  47:csys68k.c     **** 
  48:csys68k.c     ****     } else {
  49:csys68k.c     ****         outbyte(ch, c);
  50:csys68k.c     ****         *(buf + i) = c;
  51:csys68k.c     ****     }
  52:csys68k.c     **** 
  53:csys68k.c     ****     if (*(buf + i) == '\n'){
  54:csys68k.c     ****         return (i + 1);
  55:csys68k.c     ****     }
  56:csys68k.c     ****   }
  57:csys68k.c     ****   return (i);
  58:csys68k.c     **** }
  40               		.loc 1 58 0
  41 0026 4CDF 1C1C 		movem.l (%sp)+,#7196
  42 002a 588F      		addq.l #4,%sp
  43 002c 4E75      		rts
  44               	.L12:
  15:csys68k.c     ****       break;
  45               		.loc 1 15 0
  46 002e 7600      		moveq #0,%d3
  47               	.L3:
  48               	.LVL1:
  29:csys68k.c     ****     c = inbyte(ch);
  49               		.loc 1 29 0
  50 0030 4A84      		tst.l %d4
  51 0032 6F00 00B0 		jle .L13
  52 0036 7400      		moveq #0,%d2
  53 0038 45F9 0000 		lea inbyte,%a2
  53      0000 


  49:csys68k.c     ****         *(buf + i) = c;
  54               		.loc 1 49 0
  55 003e 47F9 0000 		lea outbyte,%a3
  55      0000 
  56               	.LVL2:
  57               	.L10:
  30:csys68k.c     **** 
  58               		.loc 1 30 0
  59 0044 2F03      		move.l %d3,-(%sp)
  60               		.cfi_def_cfa_offset 36
  61 0046 4E92      		jsr (%a2)
  62               	.LVL3:
  32:csys68k.c     ****         outbyte(ch, '\r');
  63               		.loc 1 32 0
  64 0048 588F      		addq.l #4,%sp
  65               		.cfi_def_cfa_offset 32
  66 004a 0C00 000D 		cmp.b #13,%d0
  67 004e 6740      		jeq .L6
  32:csys68k.c     ****         outbyte(ch, '\r');
  68               		.loc 1 32 0 is_stmt 0 discriminator 1
  69 0050 0C00 000A 		cmp.b #10,%d0
  70 0054 673A      		jeq .L6
  38:csys68k.c     ****       if (i > 0){
  71               		.loc 1 38 0 is_stmt 1
  72 0056 0C00 007F 		cmp.b #127,%d0
  73 005a 6660      		jne .L7
  39:csys68k.c     ****           outbyte(ch, '\x8'); /* bs  */
  74               		.loc 1 39 0
  75 005c 4A82      		tst.l %d2
  76 005e 671E      		jeq .L8
  40:csys68k.c     ****           outbyte(ch, ' ');   /* spc */
  77               		.loc 1 40 0
  78 0060 4878 0008 		pea 8.w
  79               		.cfi_def_cfa_offset 36
  80 0064 2F03      		move.l %d3,-(%sp)
  81               		.cfi_def_cfa_offset 40
  82 0066 4E93      		jsr (%a3)
  83               	.LVL4:
  41:csys68k.c     ****           outbyte(ch, '\x8'); /* bs  */
  84               		.loc 1 41 0
  85 0068 4878 0020 		pea 32.w
  86               		.cfi_def_cfa_offset 44
  87 006c 2F03      		move.l %d3,-(%sp)
  88               		.cfi_def_cfa_offset 48
  89 006e 4E93      		jsr (%a3)
  90               	.LVL5:
  42:csys68k.c     **** 	      i--;
  91               		.loc 1 42 0
  92 0070 4878 0008 		pea 8.w
  93               		.cfi_def_cfa_offset 52
  94 0074 2F03      		move.l %d3,-(%sp)
  95               		.cfi_def_cfa_offset 56
  96 0076 4E93      		jsr (%a3)
  97               	.LVL6:
  43:csys68k.c     ****       }
  98               		.loc 1 43 0
  99 0078 5382      		subq.l #1,%d2


 100               	.LVL7:
 101 007a 4FEF 0018 		lea (24,%sp),%sp
 102               		.cfi_def_cfa_offset 32
 103               	.L8:
  45:csys68k.c     ****       continue;
 104               		.loc 1 45 0
 105 007e 5382      		subq.l #1,%d2
 106               	.LVL8:
  29:csys68k.c     ****     c = inbyte(ch);
 107               		.loc 1 29 0
 108 0080 5282      		addq.l #1,%d2
 109               	.LVL9:
 110 0082 B484      		cmp.l %d4,%d2
 111 0084 6DBE      		jlt .L10
 112               	.L30:
 113 0086 2002      		move.l %d2,%d0
 114               		.loc 1 58 0
 115 0088 4CDF 1C1C 		movem.l (%sp)+,#7196
 116               	.LVL10:
 117 008c 588F      		addq.l #4,%sp
 118 008e 4E75      		rts
 119               	.LVL11:
 120               	.L6:
  33:csys68k.c     ****         outbyte(ch, '\n');
 121               		.loc 1 33 0
 122 0090 4878 000D 		pea 13.w
 123               		.cfi_def_cfa_offset 36
 124 0094 2F03      		move.l %d3,-(%sp)
 125               		.cfi_def_cfa_offset 40
 126 0096 45F9 0000 		lea outbyte,%a2
 126      0000 
 127 009c 4E92      		jsr (%a2)
 128               	.LVL12:
  34:csys68k.c     ****         *(buf + i) = '\n';
 129               		.loc 1 34 0
 130 009e 4878 000A 		pea 10.w
 131               		.cfi_def_cfa_offset 44
 132 00a2 2F03      		move.l %d3,-(%sp)
 133               		.cfi_def_cfa_offset 48
 134 00a4 4E92      		jsr (%a2)
 135               	.LVL13:
  35:csys68k.c     **** 
 136               		.loc 1 35 0
 137 00a6 19BC 000A 		move.b #10,(%a4,%d2.l)
 137      2800 
  54:csys68k.c     ****     }
 138               		.loc 1 54 0
 139 00ac 2002      		move.l %d2,%d0
 140 00ae 5280      		addq.l #1,%d0
 141 00b0 4FEF 0010 		lea (16,%sp),%sp
 142               		.cfi_def_cfa_offset 32
 143               		.loc 1 58 0
 144 00b4 4CDF 1C1C 		movem.l (%sp)+,#7196
 145               	.LVL14:
 146 00b8 588F      		addq.l #4,%sp
 147 00ba 4E75      		rts
 148               	.LVL15:


 149               	.L7:
  49:csys68k.c     ****         *(buf + i) = c;
 150               		.loc 1 49 0
 151 00bc 7200      		moveq #0,%d1
 152 00be 1200      		move.b %d0,%d1
 153 00c0 2F01      		move.l %d1,-(%sp)
 154               		.cfi_def_cfa_offset 36
 155 00c2 2F03      		move.l %d3,-(%sp)
 156               		.cfi_def_cfa_offset 40
 157 00c4 2F40 0020 		move.l %d0,32(%sp)
 158 00c8 4E93      		jsr (%a3)
 159               	.LVL16:
  50:csys68k.c     ****     }
 160               		.loc 1 50 0
 161 00ca 202F 0020 		move.l 32(%sp),%d0
 162 00ce 1980 2800 		move.b %d0,(%a4,%d2.l)
 163 00d2 508F      		addq.l #8,%sp
 164               		.cfi_def_cfa_offset 32
  29:csys68k.c     ****     c = inbyte(ch);
 165               		.loc 1 29 0
 166 00d4 5282      		addq.l #1,%d2
 167               	.LVL17:
 168 00d6 B484      		cmp.l %d4,%d2
 169 00d8 6D00 FF6A 		jlt .L10
 170 00dc 60A8      		jra .L30
 171               	.LVL18:
 172               	.L4:
  19:csys68k.c     ****       break;
 173               		.loc 1 19 0
 174 00de 7601      		moveq #1,%d3
 175 00e0 6000 FF4E 		jra .L3
 176               	.LVL19:
 177               	.L13:
  29:csys68k.c     ****     c = inbyte(ch);
 178               		.loc 1 29 0
 179 00e4 7000      		moveq #0,%d0
 180 00e6 6000 FF3E 		jra .L2
 181               		.cfi_endproc
 182               	.LFE0:
 183               		.size	read, .-read
 184               		.align	2
 185               		.globl	write
 186               		.type	write, @function
 187               	write:
 188               	.LFB1:
  59:csys68k.c     **** 
  60:csys68k.c     **** int write (int fd, char *buf, int nbytes){
 189               		.loc 1 60 0
 190               		.cfi_startproc
 191               	.LVL20:
 192 00ea 48E7 3830 		movem.l #14384,-(%sp)
 193               		.cfi_def_cfa_offset 24
 194               		.cfi_offset 2, -24
 195               		.cfi_offset 3, -20
 196               		.cfi_offset 4, -16
 197               		.cfi_offset 10, -12
 198               		.cfi_offset 11, -8


 199 00ee 202F 0018 		move.l 24(%sp),%d0
 200 00f2 282F 0020 		move.l 32(%sp),%d4
  61:csys68k.c     ****   int i, j, ch;
  62:csys68k.c     ****   switch(fd){
 201               		.loc 1 62 0
 202 00f6 7201      		moveq #1,%d1
 203 00f8 B280      		cmp.l %d0,%d1
 204 00fa 6E64      		jgt .L39
 205 00fc 7203      		moveq #3,%d1
 206 00fe B280      		cmp.l %d0,%d1
 207 0100 6C66      		jge .L33
 208 0102 7204      		moveq #4,%d1
 209 0104 B280      		cmp.l %d0,%d1
 210 0106 6658      		jne .L39
  63:csys68k.c     ****    case 1:
  64:csys68k.c     ****    case 2:
  65:csys68k.c     ****    case 3:
  66:csys68k.c     ****        ch = 0;
  67:csys68k.c     ****        break;
  68:csys68k.c     ****        
  69:csys68k.c     ****    case 4:
  70:csys68k.c     ****        ch = 1;
 211               		.loc 1 70 0
 212 0108 7401      		moveq #1,%d2
 213               	.L34:
 214               	.LVL21:
  71:csys68k.c     ****        break;
  72:csys68k.c     ****        
  73:csys68k.c     ****    default:
  74:csys68k.c     ****        return EBADF;
  75:csys68k.c     ****   }
  76:csys68k.c     ****   for (i = 0; i < nbytes; i++) {
 215               		.loc 1 76 0
 216 010a 4A84      		tst.l %d4
 217 010c 6F28      		jle .L38
 218 010e 246F 001C 		move.l 28(%sp),%a2
 219 0112 260A      		move.l %a2,%d3
 220 0114 D684      		add.l %d4,%d3
 221 0116 47F9 0000 		lea outbyte,%a3
 221      0000 
 222               	.LVL22:
 223               	.L37:
  77:csys68k.c     ****     if (*(buf + i) == '\n') {
 224               		.loc 1 77 0
 225 011c 121A      		move.b (%a2)+,%d1
 226               	.LVL23:
 227 011e 0C01 000A 		cmp.b #10,%d1
 228 0122 671A      		jeq .L44
  78:csys68k.c     ****       outbyte (ch, '\r');          /* LF -> CRLF */
  79:csys68k.c     ****     }
  80:csys68k.c     ****     outbyte (ch, *(buf + i));
 229               		.loc 1 80 0
 230 0124 0281 0000 		and.l #255,%d1
 230      00FF 
 231 012a 2F01      		move.l %d1,-(%sp)
 232               		.cfi_def_cfa_offset 28
 233 012c 2F02      		move.l %d2,-(%sp)


 234               		.cfi_def_cfa_offset 32
 235 012e 4E93      		jsr (%a3)
 236               	.LVL24:
  76:csys68k.c     ****     if (*(buf + i) == '\n') {
 237               		.loc 1 76 0
 238 0130 508F      		addq.l #8,%sp
 239               		.cfi_def_cfa_offset 24
 240 0132 B5C3      		cmp.l %d3,%a2
 241 0134 66E6      		jne .L37
 242               	.LVL25:
 243               	.L38:
  74:csys68k.c     ****   }
 244               		.loc 1 74 0
 245 0136 2004      		move.l %d4,%d0
  81:csys68k.c     ****     for (j = 0; j < 300; j++);
  82:csys68k.c     ****   }
  83:csys68k.c     ****   return (nbytes);
  84:csys68k.c     **** }
 246               		.loc 1 84 0
 247 0138 4CDF 0C1C 		movem.l (%sp)+,#3100
 248               	.LVL26:
 249 013c 4E75      		rts
 250               	.LVL27:
 251               	.L44:
  78:csys68k.c     ****     }
 252               		.loc 1 78 0
 253 013e 4878 000D 		pea 13.w
 254               		.cfi_def_cfa_offset 28
 255 0142 2F02      		move.l %d2,-(%sp)
 256               		.cfi_def_cfa_offset 32
 257 0144 4E93      		jsr (%a3)
 258               	.LVL28:
 259 0146 122A FFFF 		move.b -1(%a2),%d1
 260 014a 508F      		addq.l #8,%sp
 261               		.cfi_def_cfa_offset 24
  80:csys68k.c     ****     for (j = 0; j < 300; j++);
 262               		.loc 1 80 0
 263 014c 0281 0000 		and.l #255,%d1
 263      00FF 
 264 0152 2F01      		move.l %d1,-(%sp)
 265               		.cfi_def_cfa_offset 28
 266 0154 2F02      		move.l %d2,-(%sp)
 267               		.cfi_def_cfa_offset 32
 268 0156 4E93      		jsr (%a3)
 269               	.LVL29:
  76:csys68k.c     ****     if (*(buf + i) == '\n') {
 270               		.loc 1 76 0
 271 0158 508F      		addq.l #8,%sp
 272               		.cfi_def_cfa_offset 24
 273 015a B5C3      		cmp.l %d3,%a2
 274 015c 66BE      		jne .L37
 275 015e 60D6      		jra .L38
 276               	.LVL30:
 277               	.L39:
  74:csys68k.c     ****   }
 278               		.loc 1 74 0
 279 0160 7009      		moveq #9,%d0


 280               		.loc 1 84 0
 281 0162 4CDF 0C1C 		movem.l (%sp)+,#3100
 282 0166 4E75      		rts
 283               	.L33:
  66:csys68k.c     ****        break;
 284               		.loc 1 66 0
 285 0168 7400      		moveq #0,%d2
 286 016a 609E      		jra .L34
 287               		.cfi_endproc
 288               	.LFE1:
 289               		.size	write, .-write
 290               		.align	2
 291               		.globl	fcntl
 292               		.type	fcntl, @function
 293               	fcntl:
 294               	.LFB2:
  85:csys68k.c     **** 
  86:csys68k.c     **** 
  87:csys68k.c     **** int fcntl(int fd, int cmd, ...) {
 295               		.loc 1 87 0
 296               		.cfi_startproc
 297               	.LVL31:
  88:csys68k.c     **** 	if (cmd == F_GETFL) {
 298               		.loc 1 88 0
 299 016c 7003      		moveq #3,%d0
 300 016e B0AF 0008 		cmp.l 8(%sp),%d0
 301 0172 6704      		jeq .L47
  89:csys68k.c     **** 		return O_RDWR;
  90:csys68k.c     **** 
  91:csys68k.c     **** 	} else {
  92:csys68k.c     **** 		return 0;
 302               		.loc 1 92 0
 303 0174 7000      		moveq #0,%d0
 304 0176 4E75      		rts
 305               	.L47:
  89:csys68k.c     **** 		return O_RDWR;
 306               		.loc 1 89 0
 307 0178 7002      		moveq #2,%d0
  93:csys68k.c     **** 	}
  94:csys68k.c     **** 
  95:csys68k.c     **** 
  96:csys68k.c     **** }
 308               		.loc 1 96 0
 309 017a 4E75      		rts
 310               		.cfi_endproc
 311               	.LFE2:
 312               		.size	fcntl, .-fcntl
 313               	.Letext0:
 314               		.file 2 "/usr/local/m68k-elf/include/sys/_default_fcntl.h"
 315               		.section	.debug_info,"",@progbits
 316               	.Ldebug_info0:
 317 0000 0000 019B 		.long	0x19b
 318 0004 0004      		.word	0x4
 319 0006 0000 0000 		.long	.Ldebug_abbrev0
 320 000a 04        		.byte	0x4
 321 000b 01        		.uleb128 0x1
 322 000c 0000 0000 		.long	.LASF15


 323 0010 0C        		.byte	0xc
 324 0011 0000 0000 		.long	.LASF16
 325 0015 0000 0000 		.long	.LASF17
 326 0019 0000 0000 		.long	.Ltext0
 327 001d 0000 017C 		.long	.Letext0-.Ltext0
 328 0021 0000 0000 		.long	.Ldebug_line0
 329 0025 02        		.uleb128 0x2
 330 0026 01        		.byte	0x1
 331 0027 06        		.byte	0x6
 332 0028 0000 0000 		.long	.LASF0
 333 002c 02        		.uleb128 0x2
 334 002d 01        		.byte	0x1
 335 002e 08        		.byte	0x8
 336 002f 0000 0000 		.long	.LASF1
 337 0033 02        		.uleb128 0x2
 338 0034 02        		.byte	0x2
 339 0035 05        		.byte	0x5
 340 0036 0000 0000 		.long	.LASF2
 341 003a 02        		.uleb128 0x2
 342 003b 02        		.byte	0x2
 343 003c 07        		.byte	0x7
 344 003d 0000 0000 		.long	.LASF3
 345 0041 02        		.uleb128 0x2
 346 0042 04        		.byte	0x4
 347 0043 05        		.byte	0x5
 348 0044 0000 0000 		.long	.LASF4
 349 0048 02        		.uleb128 0x2
 350 0049 04        		.byte	0x4
 351 004a 07        		.byte	0x7
 352 004b 0000 0000 		.long	.LASF5
 353 004f 02        		.uleb128 0x2
 354 0050 08        		.byte	0x8
 355 0051 05        		.byte	0x5
 356 0052 0000 0000 		.long	.LASF6
 357 0056 02        		.uleb128 0x2
 358 0057 08        		.byte	0x8
 359 0058 07        		.byte	0x7
 360 0059 0000 0000 		.long	.LASF7
 361 005d 02        		.uleb128 0x2
 362 005e 0C        		.byte	0xc
 363 005f 04        		.byte	0x4
 364 0060 0000 0000 		.long	.LASF8
 365 0064 03        		.uleb128 0x3
 366 0065 04        		.byte	0x4
 367 0066 05        		.byte	0x5
 368 0067 696E 7400 		.string	"int"
 369 006b 02        		.uleb128 0x2
 370 006c 04        		.byte	0x4
 371 006d 07        		.byte	0x7
 372 006e 0000 0000 		.long	.LASF9
 373 0072 02        		.uleb128 0x2
 374 0073 04        		.byte	0x4
 375 0074 07        		.byte	0x7
 376 0075 0000 0000 		.long	.LASF10
 377 0079 04        		.uleb128 0x4
 378 007a 04        		.byte	0x4
 379 007b 0000 007F 		.long	0x7f


 380 007f 02        		.uleb128 0x2
 381 0080 01        		.byte	0x1
 382 0081 06        		.byte	0x6
 383 0082 0000 0000 		.long	.LASF11
 384 0086 05        		.uleb128 0x5
 385 0087 0000 0000 		.long	.LASF13
 386 008b 01        		.byte	0x1
 387 008c 09        		.byte	0x9
 388 008d 0000 0064 		.long	0x64
 389 0091 0000 0000 		.long	.LFB0
 390 0095 0000 00EA 		.long	.LFE0-.LFB0
 391 0099 01        		.uleb128 0x1
 392 009a 9C        		.byte	0x9c
 393 009b 0000 0101 		.long	0x101
 394 009f 06        		.uleb128 0x6
 395 00a0 6664 00   		.string	"fd"
 396 00a3 01        		.byte	0x1
 397 00a4 09        		.byte	0x9
 398 00a5 0000 0064 		.long	0x64
 399 00a9 02        		.uleb128 0x2
 400 00aa 91        		.byte	0x91
 401 00ab 00        		.sleb128 0
 402 00ac 06        		.uleb128 0x6
 403 00ad 6275 6600 		.string	"buf"
 404 00b1 01        		.byte	0x1
 405 00b2 09        		.byte	0x9
 406 00b3 0000 0079 		.long	0x79
 407 00b7 02        		.uleb128 0x2
 408 00b8 91        		.byte	0x91
 409 00b9 04        		.sleb128 4
 410 00ba 07        		.uleb128 0x7
 411 00bb 0000 0000 		.long	.LASF12
 412 00bf 01        		.byte	0x1
 413 00c0 09        		.byte	0x9
 414 00c1 0000 0064 		.long	0x64
 415 00c5 02        		.uleb128 0x2
 416 00c6 91        		.byte	0x91
 417 00c7 08        		.sleb128 8
 418 00c8 08        		.uleb128 0x8
 419 00c9 6368 00   		.string	"ch"
 420 00cc 01        		.byte	0x1
 421 00cd 0A        		.byte	0xa
 422 00ce 0000 0064 		.long	0x64
 423 00d2 0000 0000 		.long	.LLST0
 424 00d6 08        		.uleb128 0x8
 425 00d7 6300      		.string	"c"
 426 00d9 01        		.byte	0x1
 427 00da 1A        		.byte	0x1a
 428 00db 0000 007F 		.long	0x7f
 429 00df 0000 0000 		.long	.LLST1
 430 00e3 08        		.uleb128 0x8
 431 00e4 6900      		.string	"i"
 432 00e6 01        		.byte	0x1
 433 00e7 1B        		.byte	0x1b
 434 00e8 0000 0064 		.long	0x64
 435 00ec 0000 0000 		.long	.LLST2
 436 00f0 09        		.uleb128 0x9


 437 00f1 0000 0000 		.long	.LVL12
 438 00f5 02        		.uleb128 0x2
 439 00f6 7A        		.byte	0x7a
 440 00f7 00        		.sleb128 0
 441 00f8 09        		.uleb128 0x9
 442 00f9 0000 0000 		.long	.LVL13
 443 00fd 02        		.uleb128 0x2
 444 00fe 7A        		.byte	0x7a
 445 00ff 00        		.sleb128 0
 446 0100 00        		.byte	0
 447 0101 05        		.uleb128 0x5
 448 0102 0000 0000 		.long	.LASF14
 449 0106 01        		.byte	0x1
 450 0107 3C        		.byte	0x3c
 451 0108 0000 0064 		.long	0x64
 452 010c 0000 0000 		.long	.LFB1
 453 0110 0000 0082 		.long	.LFE1-.LFB1
 454 0114 01        		.uleb128 0x1
 455 0115 9C        		.byte	0x9c
 456 0116 0000 016C 		.long	0x16c
 457 011a 06        		.uleb128 0x6
 458 011b 6664 00   		.string	"fd"
 459 011e 01        		.byte	0x1
 460 011f 3C        		.byte	0x3c
 461 0120 0000 0064 		.long	0x64
 462 0124 02        		.uleb128 0x2
 463 0125 91        		.byte	0x91
 464 0126 00        		.sleb128 0
 465 0127 06        		.uleb128 0x6
 466 0128 6275 6600 		.string	"buf"
 467 012c 01        		.byte	0x1
 468 012d 3C        		.byte	0x3c
 469 012e 0000 0079 		.long	0x79
 470 0132 02        		.uleb128 0x2
 471 0133 91        		.byte	0x91
 472 0134 04        		.sleb128 4
 473 0135 07        		.uleb128 0x7
 474 0136 0000 0000 		.long	.LASF12
 475 013a 01        		.byte	0x1
 476 013b 3C        		.byte	0x3c
 477 013c 0000 0064 		.long	0x64
 478 0140 02        		.uleb128 0x2
 479 0141 91        		.byte	0x91
 480 0142 08        		.sleb128 8
 481 0143 08        		.uleb128 0x8
 482 0144 6900      		.string	"i"
 483 0146 01        		.byte	0x1
 484 0147 3D        		.byte	0x3d
 485 0148 0000 0064 		.long	0x64
 486 014c 0000 0000 		.long	.LLST3
 487 0150 08        		.uleb128 0x8
 488 0151 6A00      		.string	"j"
 489 0153 01        		.byte	0x1
 490 0154 3D        		.byte	0x3d
 491 0155 0000 0064 		.long	0x64
 492 0159 0000 0000 		.long	.LLST4
 493 015d 08        		.uleb128 0x8


 494 015e 6368 00   		.string	"ch"
 495 0161 01        		.byte	0x1
 496 0162 3D        		.byte	0x3d
 497 0163 0000 0064 		.long	0x64
 498 0167 0000 0000 		.long	.LLST5
 499 016b 00        		.byte	0
 500 016c 0A        		.uleb128 0xa
 501 016d 0000 0000 		.long	.LASF18
 502 0171 02        		.byte	0x2
 503 0172 CF        		.byte	0xcf
 504 0173 0000 0064 		.long	0x64
 505 0177 0000 0000 		.long	.LFB2
 506 017b 0000 0010 		.long	.LFE2-.LFB2
 507 017f 01        		.uleb128 0x1
 508 0180 9C        		.byte	0x9c
 509 0181 06        		.uleb128 0x6
 510 0182 6664 00   		.string	"fd"
 511 0185 01        		.byte	0x1
 512 0186 57        		.byte	0x57
 513 0187 0000 0064 		.long	0x64
 514 018b 02        		.uleb128 0x2
 515 018c 91        		.byte	0x91
 516 018d 00        		.sleb128 0
 517 018e 06        		.uleb128 0x6
 518 018f 636D 6400 		.string	"cmd"
 519 0193 01        		.byte	0x1
 520 0194 57        		.byte	0x57
 521 0195 0000 0064 		.long	0x64
 522 0199 02        		.uleb128 0x2
 523 019a 91        		.byte	0x91
 524 019b 04        		.sleb128 4
 525 019c 0B        		.uleb128 0xb
 526 019d 00        		.byte	0
 527 019e 00        		.byte	0
 528               		.section	.debug_abbrev,"",@progbits
 529               	.Ldebug_abbrev0:
 530 0000 01        		.uleb128 0x1
 531 0001 11        		.uleb128 0x11
 532 0002 01        		.byte	0x1
 533 0003 25        		.uleb128 0x25
 534 0004 0E        		.uleb128 0xe
 535 0005 13        		.uleb128 0x13
 536 0006 0B        		.uleb128 0xb
 537 0007 03        		.uleb128 0x3
 538 0008 0E        		.uleb128 0xe
 539 0009 1B        		.uleb128 0x1b
 540 000a 0E        		.uleb128 0xe
 541 000b 11        		.uleb128 0x11
 542 000c 01        		.uleb128 0x1
 543 000d 12        		.uleb128 0x12
 544 000e 06        		.uleb128 0x6
 545 000f 10        		.uleb128 0x10
 546 0010 17        		.uleb128 0x17
 547 0011 00        		.byte	0
 548 0012 00        		.byte	0
 549 0013 02        		.uleb128 0x2
 550 0014 24        		.uleb128 0x24


 551 0015 00        		.byte	0
 552 0016 0B        		.uleb128 0xb
 553 0017 0B        		.uleb128 0xb
 554 0018 3E        		.uleb128 0x3e
 555 0019 0B        		.uleb128 0xb
 556 001a 03        		.uleb128 0x3
 557 001b 0E        		.uleb128 0xe
 558 001c 00        		.byte	0
 559 001d 00        		.byte	0
 560 001e 03        		.uleb128 0x3
 561 001f 24        		.uleb128 0x24
 562 0020 00        		.byte	0
 563 0021 0B        		.uleb128 0xb
 564 0022 0B        		.uleb128 0xb
 565 0023 3E        		.uleb128 0x3e
 566 0024 0B        		.uleb128 0xb
 567 0025 03        		.uleb128 0x3
 568 0026 08        		.uleb128 0x8
 569 0027 00        		.byte	0
 570 0028 00        		.byte	0
 571 0029 04        		.uleb128 0x4
 572 002a 0F        		.uleb128 0xf
 573 002b 00        		.byte	0
 574 002c 0B        		.uleb128 0xb
 575 002d 0B        		.uleb128 0xb
 576 002e 49        		.uleb128 0x49
 577 002f 13        		.uleb128 0x13
 578 0030 00        		.byte	0
 579 0031 00        		.byte	0
 580 0032 05        		.uleb128 0x5
 581 0033 2E        		.uleb128 0x2e
 582 0034 01        		.byte	0x1
 583 0035 3F        		.uleb128 0x3f
 584 0036 19        		.uleb128 0x19
 585 0037 03        		.uleb128 0x3
 586 0038 0E        		.uleb128 0xe
 587 0039 3A        		.uleb128 0x3a
 588 003a 0B        		.uleb128 0xb
 589 003b 3B        		.uleb128 0x3b
 590 003c 0B        		.uleb128 0xb
 591 003d 27        		.uleb128 0x27
 592 003e 19        		.uleb128 0x19
 593 003f 49        		.uleb128 0x49
 594 0040 13        		.uleb128 0x13
 595 0041 11        		.uleb128 0x11
 596 0042 01        		.uleb128 0x1
 597 0043 12        		.uleb128 0x12
 598 0044 06        		.uleb128 0x6
 599 0045 40        		.uleb128 0x40
 600 0046 18        		.uleb128 0x18
 601 0047 9642      		.uleb128 0x2116
 602 0049 19        		.uleb128 0x19
 603 004a 01        		.uleb128 0x1
 604 004b 13        		.uleb128 0x13
 605 004c 00        		.byte	0
 606 004d 00        		.byte	0
 607 004e 06        		.uleb128 0x6


 608 004f 05        		.uleb128 0x5
 609 0050 00        		.byte	0
 610 0051 03        		.uleb128 0x3
 611 0052 08        		.uleb128 0x8
 612 0053 3A        		.uleb128 0x3a
 613 0054 0B        		.uleb128 0xb
 614 0055 3B        		.uleb128 0x3b
 615 0056 0B        		.uleb128 0xb
 616 0057 49        		.uleb128 0x49
 617 0058 13        		.uleb128 0x13
 618 0059 02        		.uleb128 0x2
 619 005a 18        		.uleb128 0x18
 620 005b 00        		.byte	0
 621 005c 00        		.byte	0
 622 005d 07        		.uleb128 0x7
 623 005e 05        		.uleb128 0x5
 624 005f 00        		.byte	0
 625 0060 03        		.uleb128 0x3
 626 0061 0E        		.uleb128 0xe
 627 0062 3A        		.uleb128 0x3a
 628 0063 0B        		.uleb128 0xb
 629 0064 3B        		.uleb128 0x3b
 630 0065 0B        		.uleb128 0xb
 631 0066 49        		.uleb128 0x49
 632 0067 13        		.uleb128 0x13
 633 0068 02        		.uleb128 0x2
 634 0069 18        		.uleb128 0x18
 635 006a 00        		.byte	0
 636 006b 00        		.byte	0
 637 006c 08        		.uleb128 0x8
 638 006d 34        		.uleb128 0x34
 639 006e 00        		.byte	0
 640 006f 03        		.uleb128 0x3
 641 0070 08        		.uleb128 0x8
 642 0071 3A        		.uleb128 0x3a
 643 0072 0B        		.uleb128 0xb
 644 0073 3B        		.uleb128 0x3b
 645 0074 0B        		.uleb128 0xb
 646 0075 49        		.uleb128 0x49
 647 0076 13        		.uleb128 0x13
 648 0077 02        		.uleb128 0x2
 649 0078 17        		.uleb128 0x17
 650 0079 00        		.byte	0
 651 007a 00        		.byte	0
 652 007b 09        		.uleb128 0x9
 653 007c 8982 01   		.uleb128 0x4109
 654 007f 00        		.byte	0
 655 0080 11        		.uleb128 0x11
 656 0081 01        		.uleb128 0x1
 657 0082 9342      		.uleb128 0x2113
 658 0084 18        		.uleb128 0x18
 659 0085 00        		.byte	0
 660 0086 00        		.byte	0
 661 0087 0A        		.uleb128 0xa
 662 0088 2E        		.uleb128 0x2e
 663 0089 01        		.byte	0x1
 664 008a 3F        		.uleb128 0x3f


 665 008b 19        		.uleb128 0x19
 666 008c 03        		.uleb128 0x3
 667 008d 0E        		.uleb128 0xe
 668 008e 3A        		.uleb128 0x3a
 669 008f 0B        		.uleb128 0xb
 670 0090 3B        		.uleb128 0x3b
 671 0091 0B        		.uleb128 0xb
 672 0092 27        		.uleb128 0x27
 673 0093 19        		.uleb128 0x19
 674 0094 49        		.uleb128 0x49
 675 0095 13        		.uleb128 0x13
 676 0096 11        		.uleb128 0x11
 677 0097 01        		.uleb128 0x1
 678 0098 12        		.uleb128 0x12
 679 0099 06        		.uleb128 0x6
 680 009a 40        		.uleb128 0x40
 681 009b 18        		.uleb128 0x18
 682 009c 9742      		.uleb128 0x2117
 683 009e 19        		.uleb128 0x19
 684 009f 00        		.byte	0
 685 00a0 00        		.byte	0
 686 00a1 0B        		.uleb128 0xb
 687 00a2 18        		.uleb128 0x18
 688 00a3 00        		.byte	0
 689 00a4 00        		.byte	0
 690 00a5 00        		.byte	0
 691 00a6 00        		.byte	0
 692               		.section	.debug_loc,"",@progbits
 693               	.Ldebug_loc0:
 694               	.LLST0:
 695 0000 0000 0030 		.long	.LVL1-.Ltext0
 696 0004 0000 008C 		.long	.LVL10-.Ltext0
 697 0008 0001      		.word	0x1
 698 000a 53        		.byte	0x53
 699 000b 0000 0090 		.long	.LVL11-.Ltext0
 700 000f 0000 00B8 		.long	.LVL14-.Ltext0
 701 0013 0001      		.word	0x1
 702 0015 53        		.byte	0x53
 703 0016 0000 00BC 		.long	.LVL15-.Ltext0
 704 001a 0000 00DE 		.long	.LVL18-.Ltext0
 705 001e 0001      		.word	0x1
 706 0020 53        		.byte	0x53
 707 0021 0000 00E4 		.long	.LVL19-.Ltext0
 708 0025 0000 00EA 		.long	.LFE0-.Ltext0
 709 0029 0001      		.word	0x1
 710 002b 53        		.byte	0x53
 711 002c 0000 0000 		.long	0
 712 0030 0000 0000 		.long	0
 713               	.LLST1:
 714 0034 0000 0048 		.long	.LVL3-.Ltext0
 715 0038 0000 0067 		.long	.LVL4-1-.Ltext0
 716 003c 0001      		.word	0x1
 717 003e 50        		.byte	0x50
 718 003f 0000 0090 		.long	.LVL11-.Ltext0
 719 0043 0000 009D 		.long	.LVL12-1-.Ltext0
 720 0047 0001      		.word	0x1
 721 0049 50        		.byte	0x50


 722 004a 0000 00BC 		.long	.LVL15-.Ltext0
 723 004e 0000 00C9 		.long	.LVL16-1-.Ltext0
 724 0052 0001      		.word	0x1
 725 0054 50        		.byte	0x50
 726 0055 0000 0000 		.long	0
 727 0059 0000 0000 		.long	0
 728               	.LLST2:
 729 005d 0000 0030 		.long	.LVL1-.Ltext0
 730 0061 0000 0044 		.long	.LVL2-.Ltext0
 731 0065 0002      		.word	0x2
 732 0067 30        		.byte	0x30
 733 0068 9F        		.byte	0x9f
 734 0069 0000 0044 		.long	.LVL2-.Ltext0
 735 006d 0000 008C 		.long	.LVL10-.Ltext0
 736 0071 0001      		.word	0x1
 737 0073 52        		.byte	0x52
 738 0074 0000 008C 		.long	.LVL10-.Ltext0
 739 0078 0000 0090 		.long	.LVL11-.Ltext0
 740 007c 0001      		.word	0x1
 741 007e 50        		.byte	0x50
 742 007f 0000 0090 		.long	.LVL11-.Ltext0
 743 0083 0000 00B8 		.long	.LVL14-.Ltext0
 744 0087 0001      		.word	0x1
 745 0089 52        		.byte	0x52
 746 008a 0000 00B8 		.long	.LVL14-.Ltext0
 747 008e 0000 00BC 		.long	.LVL15-.Ltext0
 748 0092 0003      		.word	0x3
 749 0094 70        		.byte	0x70
 750 0095 7F        		.sleb128 -1
 751 0096 9F        		.byte	0x9f
 752 0097 0000 00BC 		.long	.LVL15-.Ltext0
 753 009b 0000 00DE 		.long	.LVL18-.Ltext0
 754 009f 0001      		.word	0x1
 755 00a1 52        		.byte	0x52
 756 00a2 0000 00E4 		.long	.LVL19-.Ltext0
 757 00a6 0000 00EA 		.long	.LFE0-.Ltext0
 758 00aa 0002      		.word	0x2
 759 00ac 30        		.byte	0x30
 760 00ad 9F        		.byte	0x9f
 761 00ae 0000 0000 		.long	0
 762 00b2 0000 0000 		.long	0
 763               	.LLST3:
 764 00b6 0000 010A 		.long	.LVL21-.Ltext0
 765 00ba 0000 011C 		.long	.LVL22-.Ltext0
 766 00be 0002      		.word	0x2
 767 00c0 30        		.byte	0x30
 768 00c1 9F        		.byte	0x9f
 769 00c2 0000 011C 		.long	.LVL22-.Ltext0
 770 00c6 0000 011E 		.long	.LVL23-.Ltext0
 771 00ca 0007      		.word	0x7
 772 00cc 7A        		.byte	0x7a
 773 00cd 00        		.sleb128 0
 774 00ce 91        		.byte	0x91
 775 00cf 74        		.sleb128 -12
 776 00d0 06        		.byte	0x6
 777 00d1 1C        		.byte	0x1c
 778 00d2 9F        		.byte	0x9f


 779 00d3 0000 011E 		.long	.LVL23-.Ltext0
 780 00d7 0000 0130 		.long	.LVL24-.Ltext0
 781 00db 0008      		.word	0x8
 782 00dd 91        		.byte	0x91
 783 00de 74        		.sleb128 -12
 784 00df 06        		.byte	0x6
 785 00e0 20        		.byte	0x20
 786 00e1 7A        		.byte	0x7a
 787 00e2 00        		.sleb128 0
 788 00e3 22        		.byte	0x22
 789 00e4 9F        		.byte	0x9f
 790 00e5 0000 0130 		.long	.LVL24-.Ltext0
 791 00e9 0000 0136 		.long	.LVL25-.Ltext0
 792 00ed 0007      		.word	0x7
 793 00ef 7A        		.byte	0x7a
 794 00f0 00        		.sleb128 0
 795 00f1 91        		.byte	0x91
 796 00f2 74        		.sleb128 -12
 797 00f3 06        		.byte	0x6
 798 00f4 1C        		.byte	0x1c
 799 00f5 9F        		.byte	0x9f
 800 00f6 0000 013E 		.long	.LVL27-.Ltext0
 801 00fa 0000 0158 		.long	.LVL29-.Ltext0
 802 00fe 0008      		.word	0x8
 803 0100 91        		.byte	0x91
 804 0101 74        		.sleb128 -12
 805 0102 06        		.byte	0x6
 806 0103 20        		.byte	0x20
 807 0104 7A        		.byte	0x7a
 808 0105 00        		.sleb128 0
 809 0106 22        		.byte	0x22
 810 0107 9F        		.byte	0x9f
 811 0108 0000 0158 		.long	.LVL29-.Ltext0
 812 010c 0000 0160 		.long	.LVL30-.Ltext0
 813 0110 0007      		.word	0x7
 814 0112 7A        		.byte	0x7a
 815 0113 00        		.sleb128 0
 816 0114 91        		.byte	0x91
 817 0115 74        		.sleb128 -12
 818 0116 06        		.byte	0x6
 819 0117 1C        		.byte	0x1c
 820 0118 9F        		.byte	0x9f
 821 0119 0000 0000 		.long	0
 822 011d 0000 0000 		.long	0
 823               	.LLST4:
 824 0121 0000 0130 		.long	.LVL24-.Ltext0
 825 0125 0000 0136 		.long	.LVL25-.Ltext0
 826 0129 0002      		.word	0x2
 827 012b 30        		.byte	0x30
 828 012c 9F        		.byte	0x9f
 829 012d 0000 0158 		.long	.LVL29-.Ltext0
 830 0131 0000 0160 		.long	.LVL30-.Ltext0
 831 0135 0002      		.word	0x2
 832 0137 30        		.byte	0x30
 833 0138 9F        		.byte	0x9f
 834 0139 0000 0000 		.long	0
 835 013d 0000 0000 		.long	0


 836               	.LLST5:
 837 0141 0000 010A 		.long	.LVL21-.Ltext0
 838 0145 0000 013C 		.long	.LVL26-.Ltext0
 839 0149 0001      		.word	0x1
 840 014b 52        		.byte	0x52
 841 014c 0000 013E 		.long	.LVL27-.Ltext0
 842 0150 0000 0160 		.long	.LVL30-.Ltext0
 843 0154 0001      		.word	0x1
 844 0156 52        		.byte	0x52
 845 0157 0000 0000 		.long	0
 846 015b 0000 0000 		.long	0
 847               		.section	.debug_aranges,"",@progbits
 848 0000 0000 001C 		.long	0x1c
 849 0004 0002      		.word	0x2
 850 0006 0000 0000 		.long	.Ldebug_info0
 851 000a 04        		.byte	0x4
 852 000b 00        		.byte	0
 853 000c 0000      		.word	0
 854 000e 0000      		.word	0
 855 0010 0000 0000 		.long	.Ltext0
 856 0014 0000 017C 		.long	.Letext0-.Ltext0
 857 0018 0000 0000 		.long	0
 858 001c 0000 0000 		.long	0
 859               		.section	.debug_line,"",@progbits
 860               	.Ldebug_line0:
 861 0000 0000 00C5 		.section	.debug_str,"MS",@progbits,1
 861      0002 0000 
 861      0054 0201 
 861      FB0E 0D00 
 861      0101 0101 
 862               	.LASF6:
 863 0000 6C6F 6E67 		.string	"long long int"
 863      206C 6F6E 
 863      6720 696E 
 863      7400 
 864               	.LASF9:
 865 000e 756E 7369 		.string	"unsigned int"
 865      676E 6564 
 865      2069 6E74 
 865      00
 866               	.LASF18:
 867 001b 6663 6E74 		.string	"fcntl"
 867      6C00 
 868               	.LASF5:
 869 0021 6C6F 6E67 		.string	"long unsigned int"
 869      2075 6E73 
 869      6967 6E65 
 869      6420 696E 
 869      7400 
 870               	.LASF7:
 871 0033 6C6F 6E67 		.string	"long long unsigned int"
 871      206C 6F6E 
 871      6720 756E 
 871      7369 676E 
 871      6564 2069 
 872               	.LASF16:
 873 004a 6373 7973 		.string	"csys68k.c"


 873      3638 6B2E 
 873      6300 
 874               	.LASF14:
 875 0054 7772 6974 		.string	"write"
 875      6500 
 876               	.LASF15:
 877 005a 474E 5520 		.string	"GNU C11 5.5.0 -mcpu=68000 -msoft-float -g -O2 -fomit-frame-pointer"
 877      4331 3120 
 877      352E 352E 
 877      3020 2D6D 
 877      6370 753D 
 878               	.LASF1:
 879 009d 756E 7369 		.string	"unsigned char"
 879      676E 6564 
 879      2063 6861 
 879      7200 
 880               	.LASF11:
 881 00ab 6368 6172 		.string	"char"
 881      00
 882               	.LASF4:
 883 00b0 6C6F 6E67 		.string	"long int"
 883      2069 6E74 
 883      00
 884               	.LASF12:
 885 00b9 6E62 7974 		.string	"nbytes"
 885      6573 00
 886               	.LASF13:
 887 00c0 7265 6164 		.string	"read"
 887      00
 888               	.LASF3:
 889 00c5 7368 6F72 		.string	"short unsigned int"
 889      7420 756E 
 889      7369 676E 
 889      6564 2069 
 889      6E74 00
 890               	.LASF0:
 891 00d8 7369 676E 		.string	"signed char"
 891      6564 2063 
 891      6861 7200 
 892               	.LASF8:
 893 00e4 6C6F 6E67 		.string	"long double"
 893      2064 6F75 
 893      626C 6500 
 894               	.LASF2:
 895 00f0 7368 6F72 		.string	"short int"
 895      7420 696E 
 895      7400 
 896               	.LASF17:
 897 00fa 2F68 6F6D 		.string	"/home/students/3506262308/mtk3"
 897      652F 7374 
 897      7564 656E 
 897      7473 2F33 
 897      3530 3632 
 898               	.LASF10:
 899 0119 7369 7A65 		.string	"sizetype"
 899      7479 7065 
 899      00


 900               		.ident	"GCC: (GNU) 5.5.0"




   1               	.global inbyte
   2               	
   3               	.text
   4               	.even
   5               	
   6               	inbyte:
   7 0000 48E7 7000 			movem.l %D1-%D3, -(%sp)
   8               	inbyte_loop:
   9 0004 7001      			move.l #1,  %D0         | GETSTRINGを呼び出す
  10 0006 222F 0010 			move.l 16(%sp), %D1     | ch   = 0 or 1
  11 000a 243C 0000 			move.l #In_BUF, %D2     | p    = #BUF
  11      0000 
  12 0010 7601      			move.l #1, %D3          | size = 1
  13 0012 4E40      			trap   #0
  14 0014 0C40 0001 	        cmpi   #1, %d0       | GETSTRINGの返り値が1と一致するか確認
  15 0018 6600 FFEA 			bne    inbyte_loop   | 一致しなければ再受信
  16 001c 1039 0000 			move.b In_BUF, %d0   | 戻り値をd0に追加
  16      0000 
  17 0022 4CDF 000E 			movem.l	(%sp)+, %D1-%D3
  18 0026 4E75      	        rts
  19               	
  20               	.section .bss
  21               	In_BUF: 
  22 0000 00        			.ds.b 1
  23               	




   1               	.section .bss
   2               	
   3               	.global first_task
   4               	.global pv_handler
   5               	.global P
   6               	.global V
   7               	.global swtch
   8               	.global hard_clock
   9               	.global init_timer
  10               	
  11               	.extern addq
  12               	.extern sched
  13               	.extern curr_task
  14               	.extern next_task
  15               	.extern task_tab
  16               	.extern ready
  17               	
  18               	.equ    SIZE_OF_TCB, 0x14
  19               	.equ IOBASE,    0x00d00000
  20               	.equ LED7,  IOBASE+0x000002f | ボード搭載のLED用レジスタ
  21               	.equ LED6,  IOBASE+0x000002d | 使用法については付録 A.4.3.1
  22               	.equ LED5,  IOBASE+0x000002b
  23               	.equ LED4,  IOBASE+0x0000029
  24               	.equ LED3,  IOBASE+0x000003f
  25               	.equ LED2,  IOBASE+0x000003d
  26               	.equ LED1,  IOBASE+0x000003b
  27               	.equ LED0,  IOBASE+0x0000039
  28               	.section .text
  29               	.even
  30               	swtch:
  31               			* %SR,全レジスタの値をスタックに積む
  32 0000 40E7      			move.w %SR, -(%SP)
  33 0002 48E7 FFFE 			movem.l %D0-%D7/%A0-%A6, -(%SP)
  34 0006 4E68      			move.l  %USP, %a0
  35 0008 2F08      			move.l	%a0, -(%SP)
  36 000a 4EBA 0018 			jsr     get_tcb_ssp              | %a0 <- TCBのSSPの位置
  37 000e 208F      			move.l  %SP, (%a0)               | SSPをTCBの所定の位置に格納
  38 0010 23F9 0000 	        move.l  next_task, curr_task     
  38      0000 0000 
  38      0000 
  39 001a 4EBA 0008 			jsr     get_tcb_ssp              | %a0 <- TCBのSSPの位置
  40 001e 2E50      			move.l  (%a0), %SP               | TCBに記録されているSSPを回復
  41 0020 6000 001C 			bra     end_swtch
  42               	get_tcb_ssp:
  43 0024 2039 0000 			move.l  curr_task, %d0           | %d0 = 現タスクのID 例 d0 = 2
  43      0000 
  44 002a 7214      			move.l  #SIZE_OF_TCB, %d1        | %d1 = TCBのサイズ voidが４バイトで要素が５個だ
  45 002c C2C0      			mulu.w  %d0, %d1                 | 該当タスクのTCBにアクセスするためのオフセ
  46 002e 41F9 0000 			lea.l   task_tab, %a0            | task_tabの先頭アドレス 
  46      0000 
  47 0034 D1C1      			adda.l  %d1, %a0                 | アドレスとオフセットを加算= 現
  48 0036 D1FC 0000 			adda.l  #4,  %a0                 | task_tab[ID].stack_ptrの位置を取得
  48      0004 
  49 003c 4E75      			rts
  50               	end_swtch:	
  51 003e 205F      	        move.l  (%SP)+, %A0             
  52 0040 4E60      			move.l  %A0, %USP


  53 0042 4CDF 7FFF 			movem.l (%SP)+, %D0-%D7/%A0-%A6 | 各レジスタを復帰
  54 0046 4E73      			rte
  55               	
  56               	pv_handler:
  57               	
  58 0048 48E7 FFFE 	     movem.l %D0-%D7/%A0-%A6, -(%sp) |使用可能性のあるレジスタの退避
  59 004c 40E7      	     move.w %SR, -(%sp)  |SRの退避
  60 004e 46FC 2700 	     move.w #0x2700, %SR  |走行レベルを７へ
  61 0052 48E7 4000 	     movem.l %D1, -(%sp)  |D1を引数としてスタックに積む
  62               	     
  63 0056 0C80 0000 	     cmp.l  #0, %D0       |Pからの呼び出しの場合
  63      0000 
  64 005c 6700 000C 	     beq    p_order
  65 0060 0C80 0000 	     cmp.l  #1, %D0       |Qからの呼び出しの場合
  65      0001 
  66 0066 6700 000C 	     beq    v_order
  67               	     
  68               	p_order:
  69               	
  70 006a 4EB9 0000 	     jsr p_body      |p命令実行
  70      0000 
  71 0070 6000 000C 	     bra end_pv_handler
  72               	
  73               	v_order:
  74 0074 4EB9 0000 	     jsr v_body      |v命令実行
  74      0000 
  75 007a 6000 0002 	     bra end_pv_handler
  76               	     
  77               	end_pv_handler: 
  78 007e 588F      	     add.l #4, %sp        |引数(d1)分spを上げる
  79 0080 46DF      	     move.w (%sp)+, %SR  |SRを復帰
  80 0082 4CDF 7FFF 	     movem.l (%sp)+, %D0-%D7/%A0-%A6  |レジスタの復帰
  81 0086 4E73      	     rte
  82               	     
  83               	
  84               	P:
  85 0088 48E7 C000 	     movem.l %D0-%D1, -(%sp)
  86 008c 7000      	     move.l #0, %D0        |PシステムコールのID＝０をD0レジスタに
  87 008e 222F 000C 	     move.l  12(%sp) ,%D1   |スタックに入っている引数をD1に（d0-d1+戻り番地のPC
  88 0092 4E41      	     trap #1
  89 0094 4CDF 0003 	     movem.l (%sp)+, %D0-%d1
  90 0098 4E75      	     rts
  91               	     
  92               	V:
  93 009a 48E7 C000 	     movem.l %D0-%D1, -(%sp)
  94 009e 7001      	     move.l #1, %D0        |VシステムコールのID＝1をD0レジスタに
  95 00a0 222F 000C 	     move.l  12(%sp) ,%D1  |スタックに入っている引数をD1に（d0-d1+戻り番地のPC=
  96 00a4 4E41      	     trap #1
  97 00a6 4CDF 0003 	     movem.l (%sp)+, %D0-%d1
  98 00aa 4E75      	     rts
  99               	     
 100               	****************************************************************
 101               	** hard_clock
 102               	** SW実験1で作成したタイマ用ハードウェア割り込み処理インターフェース
 103               	**
 104               	** このルーチン内で使用するレジスタをスーパーバイザスタックに積むが
 105               	** タイマ割り込みで実行されるルーチンであるため退避忘れが多いらしい


 106               	****************************************************************
 107               	
 108               	hard_clock:
 109 00ac 48E7 FFFE 	        movem.l %D0-%D7/%A0-%A6, -(%sp)         | 使用可能性のあるレジスタの退避
 110 00b0 40C0      	        move.w  %SR, %D0                        | %SRを%D0へ
 111 00b2 0800 000D 	        btst.l  #13, %D0                        | SRの13bit目を見てスーパーバイザか否
 112 00b6 6700 0020 	        beq     end_hard_clock                  | 13bit目が1でなければ、スーパーバイ
 113 00ba 2F39 0000 	        move.l  curr_task, -(%sp)
 113      0000 
 114 00c0 2F3C 0000 	        move.l  #ready,   -(%sp)
 114      0000 
 115               	       
 116 00c6 4EB9 0000 	        jsr     addq                            | current_taskをreadyの末尾に追加
 116      0000 
 117 00cc 508F      	        add.l   #8, %sp
 118               		
 119 00ce 4EB9 0000 	        jsr     sched                           | schedを起動し、次に実行されるタス
 119      0000 
 120               		
 121 00d4 4EBA FF2A 	        jsr     swtch                           | swtchの起動
 122               		
 123               	
 124               	end_hard_clock:
 125 00d8 4CDF 7FFF 	        movem.l (%sp)+, %D0-%D7/%A0-%A6         |レジスタ復帰退避
 126 00dc 4E75      	        rts
 127               	
 128               	init_timer:
 129 00de 48E7 E000 	        movem.l %D0-%D2, -(%sp)         | 使用可能性のあるレジスタの退避
 130 00e2 7003      	        move.l  #3, %D0                 | システムコールRESET_TIMERの番号
 131 00e4 4E40      	        trap    #0                      | RESET_TIMER呼び出し
 132 00e6 7004      	        move.l  #4, %D0                 | システムコールSET_TIMERの番号
 133 00e8 323C 2710 	        move.w  #10000, %D1             | 割り込み発生周期は1秒に設定(p38)
 134 00ec 243C 0000 	        move.l  #hard_clock, %d2        | 割り込み時に起動するルーチンの先頭アド
 134      0000 
 135 00f2 4E40      	        trap    #0                      | SET_TIMER呼び出し
 136 00f4 4CDF 0007 	        movem.l (%sp)+,%D0-%D2          | SRの退避
 137 00f8 4E75      	        rts
 138               	
 139               	**************************
 140               	**first_task
 141               	*************************
 142               	first_task:
 143 00fa 2039 0000 		    move.l curr_task, %d0     /* TCB先頭番地の計算 */
 143      0000 
 144 0100 43F9 0000 	        lea.l  task_tab, %a1      /* 見つけたアドレスを%a1に */
 144      0000 
 145               	loop_first_task:
 146 0106 5380      	        subq.l #1, %d0            /* 配列の何番目なのか計算 */
 147 0108 D3FC 0000 	        add.l  #0x14, %a1         /* %a1:先頭アドレス */
 147      0014 
 148 010e 0C40 0000 	        cmp    #0, %d0
 149 0112 6600 FFF2 	        bne    loop_first_task
 150               	        /*USP,SSPの値の回復*/
 151 0116 5889      	        add.l   #4, %a1           /* a1にTCBのSSP */
 152 0118 2E51      	        move.l  (%a1), %ssp
 153               	
 154 011a 4CDF 0100 	        movem.l (%sp)+, %a0


 155 011e 4E60      	        move.l  %a0, %usp
 156 0120 4CDF 7FFF 	        movem.l (%sp)+, %d0-%d7/%a0-%a6
 157               	
 158 0124 4E73      			rte                       /*rte*/
 159               	




   1               	#NO_APP
   2               		.file	"mtk_c.c"
   3               		.text
   4               	.Ltext0:
   5               		.cfi_sections	.debug_frame
   6               		.align	2
   7               		.globl	init_kernel
   8               		.type	init_kernel, @function
   9               	init_kernel:
  10               	.LFB3:
  11               		.file 1 "mtk_c.c"
   1:mtk_c.c       **** /*
   2:mtk_c.c       **** *
   3:mtk_c.c       **** * sched()   : タスクのスケジュール関数
   4:mtk_c.c       **** * removeq() : キューからタスクを取り出す
   5:mtk_c.c       **** * addq()    : キューの最後尾にタスクを登録
   6:mtk_c.c       **** * sleep()   : タスクを休眠状態にしてタスクスイッチをする
   7:mtk_c.c       **** * wakeup()  : 休眠状態のタスクを実行可能状態にする
   8:mtk_c.c       **** *
   9:mtk_c.c       **** * In the future, these functions will be included into mtk_c.c 
  10:mtk_c.c       **** */
  11:mtk_c.c       **** #include "mtk_c.h"
  12:mtk_c.c       **** #include <stdio.h>
  13:mtk_c.c       **** 
  14:mtk_c.c       **** void init_kernel() {
  12               		.loc 1 14 0
  13               		.cfi_startproc
  15:mtk_c.c       **** 	ready = 0;                  //readyの初期化
  14               		.loc 1 15 0
  15 0000 42B9 0000 		clr.l ready
  15      0000 
  16:mtk_c.c       **** 	*(int*)0x084 = (int)pv_handler;  //pv_handlerをtrap#1の割り込みベクタに登録
  16               		.loc 1 16 0
  17 0006 21FC 0000 		move.l #pv_handler,132.w
  17      0000 0084 
  18               	.LVL0:
  19               	.LBB27:
  17:mtk_c.c       **** 	for (int i=0; i<NUMSEMAPHORE; i++) {
  18:mtk_c.c       **** 	    semaphore[i].count = 1;
  20               		.loc 1 18 0
  21 000e 7001      		moveq #1,%d0
  22 0010 23C0 0000 		move.l %d0,semaphore
  22      0000 
  19:mtk_c.c       ****             semaphore[i].task_list=0;
  23               		.loc 1 19 0
  24 0016 42B9 0000 		clr.l semaphore+4
  24      0000 
  25               	.LVL1:
  18:mtk_c.c       ****             semaphore[i].task_list=0;
  26               		.loc 1 18 0
  27 001c 23C0 0000 		move.l %d0,semaphore+8
  27      0000 
  28               		.loc 1 19 0
  29 0022 42B9 0000 		clr.l semaphore+12
  29      0000 
  30               	.LVL2:
  18:mtk_c.c       ****             semaphore[i].task_list=0;


  31               		.loc 1 18 0
  32 0028 23C0 0000 		move.l %d0,semaphore+16
  32      0000 
  33               		.loc 1 19 0
  34 002e 42B9 0000 		clr.l semaphore+20
  34      0000 
  35               	.LVL3:
  36 0034 41F9 0000 		lea task_tab+20,%a0
  36      0000 
  37               	.LVL4:
  38               	.L2:
  39               	.LBE27:
  40               	.LBB28:
  20:mtk_c.c       **** 	}
  21:mtk_c.c       ****         for (int i=0; i<NUMTASK; i++) {
  22:mtk_c.c       ****             task_tab[i+1].task_addr=0;
  41               		.loc 1 22 0 discriminator 3
  42 003a 4290      		clr.l (%a0)
  23:mtk_c.c       ****             task_tab[i+1].stack_ptr=0;
  43               		.loc 1 23 0 discriminator 3
  44 003c 42A8 0004 		clr.l 4(%a0)
  24:mtk_c.c       ****             task_tab[i+1].priority=0;
  45               		.loc 1 24 0 discriminator 3
  46 0040 42A8 0008 		clr.l 8(%a0)
  25:mtk_c.c       ****             task_tab[i+1].status=0;
  47               		.loc 1 25 0 discriminator 3
  48 0044 42A8 000C 		clr.l 12(%a0)
  26:mtk_c.c       ****             task_tab[i+1].next=0;
  49               		.loc 1 26 0 discriminator 3
  50 0048 42A8 0010 		clr.l 16(%a0)
  51 004c 41E8 0014 		lea (20,%a0),%a0
  21:mtk_c.c       ****             task_tab[i+1].task_addr=0;
  52               		.loc 1 21 0 discriminator 3
  53 0050 B1FC 0000 		cmp.l #task_tab+160,%a0
  53      0000 
  54 0056 66E2      		jne .L2
  55               	.LBE28:
  27:mtk_c.c       ****         }
  28:mtk_c.c       **** 	
  29:mtk_c.c       **** }
  56               		.loc 1 29 0
  57 0058 4E75      		rts
  58               		.cfi_endproc
  59               	.LFE3:
  60               		.size	init_kernel, .-init_kernel
  61               		.align	2
  62               		.globl	set_task
  63               		.type	set_task, @function
  64               	set_task:
  65               	.LFB4:
  30:mtk_c.c       **** 
  31:mtk_c.c       **** void set_task(void *p) {
  66               		.loc 1 31 0
  67               		.cfi_startproc
  68               	.LVL5:
  69 005a 48E7 3820 		movem.l #14368,-(%sp)
  70               		.cfi_def_cfa_offset 20


  71               		.cfi_offset 2, -20
  72               		.cfi_offset 3, -16
  73               		.cfi_offset 4, -12
  74               		.cfi_offset 10, -8
  75 005e 262F 0014 		move.l 20(%sp),%d3
  76               	.LVL6:
  32:mtk_c.c       **** 	int i = 1;
  33:mtk_c.c       **** 	while (1) {                                     //タスクIDの捜索
  34:mtk_c.c       **** 		if (task_tab[i].status == 0) {
  77               		.loc 1 34 0
  78 0062 2039 0000 		move.l task_tab+32,%d0
  78      0000 
  79 0068 6700 00C0 		jeq .L12
  80 006c 43F9 0000 		lea task_tab+52,%a1
  80      0000 
  81 0072 7001      		moveq #1,%d0
  82               	.LVL7:
  35:mtk_c.c       **** 			break;
  36:mtk_c.c       **** 		}
  37:mtk_c.c       **** 		i = i+1;
  83               		.loc 1 37 0
  84 0074 2040      		move.l %d0,%a0
  85 0076 5288      		addq.l #1,%a0
  86               	.LVL8:
  87 0078 43E9 0014 		lea (20,%a1),%a1
  34:mtk_c.c       **** 			break;
  88               		.loc 1 34 0
  89 007c 4AA9 FFEC 		tst.l -20(%a1)
  90 0080 6710      		jeq .L7
  91               	.L13:
  92               		.loc 1 37 0
  93 0082 2008      		move.l %a0,%d0
  94               	.LVL9:
  95 0084 2040      		move.l %d0,%a0
  96 0086 5288      		addq.l #1,%a0
  97               	.LVL10:
  98 0088 43E9 0014 		lea (20,%a1),%a1
  34:mtk_c.c       **** 			break;
  99               		.loc 1 34 0
 100 008c 4AA9 FFEC 		tst.l -20(%a1)
 101 0090 66F0      		jne .L13
 102               	.L7:
  38:mtk_c.c       **** 	}
  39:mtk_c.c       **** 	new_task = i;                                  
 103               		.loc 1 39 0
 104 0092 23C8 0000 		move.l %a0,new_task
 104      0000 
  40:mtk_c.c       ****     task_tab[new_task].task_addr = p;                        //TCBの更新
 105               		.loc 1 40 0
 106 0098 2408      		move.l %a0,%d2
 107 009a D488      		add.l %a0,%d2
 108 009c 2242      		move.l %d2,%a1
 109 009e D3C2      		add.l %d2,%a1
 110 00a0 D3C8      		add.l %a0,%a1
 111 00a2 D3C9      		add.l %a1,%a1
 112 00a4 D3C9      		add.l %a1,%a1
 113 00a6 45F9 0000 		lea task_tab,%a2


 113      0000 
 114 00ac 2583 9800 		move.l %d3,(%a2,%a1.l)
  41:mtk_c.c       ****     task_tab[new_task].status = 1;                          
 115               		.loc 1 41 0
 116 00b0 D3CA      		add.l %a2,%a1
 117 00b2 7201      		moveq #1,%d1
 118 00b4 2341 000C 		move.l %d1,12(%a1)
 119               	.LVL11:
 120               	.LBB29:
 121               	.LBB30:
  42:mtk_c.c       ****     task_tab[new_task].stack_ptr = init_stack( new_task );          //スタックの初期化
  43:mtk_c.c       ****     addq(&ready, new_task);                         //キューへの登録
  44:mtk_c.c       **** 	
  45:mtk_c.c       **** }
  46:mtk_c.c       **** 
  47:mtk_c.c       **** void *init_stack(int id) {
  48:mtk_c.c       **** 	int *ssp1;                            //4バイト用int
  49:mtk_c.c       **** 	unsigned short int *ssp2;             //2バイト用unsigned short int
  50:mtk_c.c       **** 	void *back;                           //戻り値用
  51:mtk_c.c       **** 	ssp1 = (int *)&stacks[id-1].sstack[STKSIZE];    //stacks[id-1]に各値を代入
 122               		.loc 1 51 0
 123 00b8 2200      		move.l %d0,%d1
 124 00ba 780B      		moveq #11,%d4
 125 00bc E9A9      		lsl.l %d4,%d1
 126 00be 2441      		move.l %d1,%a2
 127 00c0 D5FC 0000 		add.l #stacks+2048,%a2
 127      0000 
 128               	.LVL12:
  52:mtk_c.c       **** 	*(--ssp1) = (int)task_tab[id].task_addr;
 129               		.loc 1 52 0
 130 00c6 2543 FFFC 		move.l %d3,-4(%a2)
 131               	.LVL13:
  53:mtk_c.c       **** 	ssp2 = (unsigned short int *)ssp1;    //2バイトに切り替え
  54:mtk_c.c       **** 	*(--ssp2) = 0x0000;
 132               		.loc 1 54 0
 133 00ca 426A FFFA 		clr.w -6(%a2)
 134               	.LVL14:
  55:mtk_c.c       **** 	ssp1 = (int *)ssp2;
  56:mtk_c.c       **** 	for (int i=0; i<15; i++) {            //15*4バイト戻す
  57:mtk_c.c       **** 		*(--ssp1);
  58:mtk_c.c       **** 	}
  59:mtk_c.c       **** 	
  60:mtk_c.c       **** 	*(--ssp1) = (int *)&stacks[id-1].ustack[STKSIZE];
 135               		.loc 1 60 0
 136 00ce 2001      		move.l %d1,%d0
 137 00d0 0680 0000 		add.l #stacks+1024,%d0
 137      0000 
 138 00d6 2540 FFBA 		move.l %d0,-70(%a2)
 139               	.LVL15:
 140 00da 45EA FFBA 		lea (-70,%a2),%a2
 141               	.LVL16:
 142 00de 234A 0004 		move.l %a2,4(%a1)
 143               	.LVL17:
 144               	.LBE30:
 145               	.LBE29:
 146               	.LBB32:
 147               	.LBB33:


  61:mtk_c.c       **** 	
  62:mtk_c.c       **** 	back = (void *)ssp1;
  63:mtk_c.c       **** 	return back;
  64:mtk_c.c       **** }
  65:mtk_c.c       **** 
  66:mtk_c.c       **** void begin_sch()
  67:mtk_c.c       **** {
  68:mtk_c.c       ****     int i;
  69:mtk_c.c       ****     i = removeq(&ready);
  70:mtk_c.c       ****     curr_task = i;
  71:mtk_c.c       **** 
  72:mtk_c.c       ****     init_timer();
  73:mtk_c.c       ****     first_task();
  74:mtk_c.c       ****     return;
  75:mtk_c.c       **** }
  76:mtk_c.c       **** 
  77:mtk_c.c       **** TASK_ID_TYPE removeq(TASK_ID_TYPE *q){
  78:mtk_c.c       ****     // 先頭タスクのidを保存
  79:mtk_c.c       ****     TASK_ID_TYPE head_task_id = *q;
  80:mtk_c.c       ****     // 先頭タスクを除去して新たなタスクidを登録
  81:mtk_c.c       ****     *q = task_tab[head_task_id].next;
  82:mtk_c.c       ****     
  83:mtk_c.c       ****     return head_task_id;
  84:mtk_c.c       **** }
  85:mtk_c.c       **** 
  86:mtk_c.c       **** void sched(void) {
  87:mtk_c.c       ****     //printf("\n\n timer ---------\n\n");
  88:mtk_c.c       ****     // readyキューの先頭タスクを取り出してnext_taskへ
  89:mtk_c.c       ****     next_task = removeq(&ready);
  90:mtk_c.c       ****     // next_taskがNULLの場合はタイマ割り込みが来るまでループ
  91:mtk_c.c       ****     while(!next_task);
  92:mtk_c.c       **** }
  93:mtk_c.c       **** 
  94:mtk_c.c       **** void addq(TASK_ID_TYPE *q, TASK_ID_TYPE task_id){
  95:mtk_c.c       ****     // idとして先頭idを保存
  96:mtk_c.c       ****     TASK_ID_TYPE id = *q;
 148               		.loc 1 96 0
 149 00e2 2039 0000 		move.l ready,%d0
 149      0000 
 150               	.LVL18:
  97:mtk_c.c       ****     
  98:mtk_c.c       ****     if (!id) { // 渡されたqueueの先頭がNULLだった場合
 151               		.loc 1 98 0
 152 00e8 6730      		jeq .L18
 153               	.LVL19:
 154               	.L15:
  99:mtk_c.c       ****         *q = task_id;
 100:mtk_c.c       ****         task_tab[task_id].next = NULLTASKID;
 101:mtk_c.c       ****         return;
 102:mtk_c.c       ****     }
 103:mtk_c.c       ****     
 104:mtk_c.c       ****     // task_tabのnextがNULLになるまでたどる
 105:mtk_c.c       ****     while (task_tab[id].next) id = task_tab[id].next;
 155               		.loc 1 105 0
 156 00ea 2200      		move.l %d0,%d1
 157 00ec D280      		add.l %d0,%d1
 158 00ee D281      		add.l %d1,%d1


 159 00f0 D081      		add.l %d1,%d0
 160               	.LVL20:
 161 00f2 D080      		add.l %d0,%d0
 162 00f4 D080      		add.l %d0,%d0
 163 00f6 2240      		move.l %d0,%a1
 164 00f8 D3FC 0000 		add.l #task_tab+16,%a1
 164      0000 
 165 00fe 2011      		move.l (%a1),%d0
 166 0100 66E8      		jne .L15
 106:mtk_c.c       ****     
 107:mtk_c.c       ****     // 最後尾にタスクidを追加
 108:mtk_c.c       ****     task_tab[id].next = task_id;
 167               		.loc 1 108 0
 168 0102 2288      		move.l %a0,(%a1)
 109:mtk_c.c       ****     task_tab[task_id].next = NULLTASKID;
 169               		.loc 1 109 0
 170 0104 D482      		add.l %d2,%d2
 171 0106 D1C2      		add.l %d2,%a0
 172               	.LVL21:
 173 0108 D1C8      		add.l %a0,%a0
 174 010a D1C8      		add.l %a0,%a0
 175 010c D1FC 0000 		add.l #task_tab+16,%a0
 175      0000 
 176 0112 4290      		clr.l (%a0)
 177               	.LVL22:
 178               	.LBE33:
 179               	.LBE32:
  45:mtk_c.c       **** 
 180               		.loc 1 45 0
 181 0114 4CDF 041C 		movem.l (%sp)+,#1052
 182 0118 4E75      		rts
 183               	.LVL23:
 184               	.L18:
 185               	.LBB36:
 186               	.LBB34:
  99:mtk_c.c       ****         task_tab[task_id].next = NULLTASKID;
 187               		.loc 1 99 0
 188 011a 23C8 0000 		move.l %a0,ready
 188      0000 
 100:mtk_c.c       ****         return;
 189               		.loc 1 100 0
 190 0120 42A9 0010 		clr.l 16(%a1)
 191               	.LBE34:
 192               	.LBE36:
  45:mtk_c.c       **** 
 193               		.loc 1 45 0
 194 0124 4CDF 041C 		movem.l (%sp)+,#1052
 195 0128 4E75      		rts
 196               	.LVL24:
 197               	.L12:
  32:mtk_c.c       **** 	while (1) {                                     //タスクIDの捜索
 198               		.loc 1 32 0
 199 012a 307C 0001 		move.w #1,%a0
  39:mtk_c.c       ****     task_tab[new_task].task_addr = p;                        //TCBの更新
 200               		.loc 1 39 0
 201 012e 23C8 0000 		move.l %a0,new_task
 201      0000 


  40:mtk_c.c       ****     task_tab[new_task].status = 1;                          
 202               		.loc 1 40 0
 203 0134 2408      		move.l %a0,%d2
 204 0136 D488      		add.l %a0,%d2
 205 0138 2242      		move.l %d2,%a1
 206 013a D3C2      		add.l %d2,%a1
 207 013c D3C8      		add.l %a0,%a1
 208 013e D3C9      		add.l %a1,%a1
 209 0140 D3C9      		add.l %a1,%a1
 210 0142 45F9 0000 		lea task_tab,%a2
 210      0000 
 211 0148 2583 9800 		move.l %d3,(%a2,%a1.l)
  41:mtk_c.c       ****     task_tab[new_task].stack_ptr = init_stack( new_task );          //スタックの初期化
 212               		.loc 1 41 0
 213 014c D3CA      		add.l %a2,%a1
 214 014e 7201      		moveq #1,%d1
 215 0150 2341 000C 		move.l %d1,12(%a1)
 216               	.LVL25:
 217               	.LBB37:
 218               	.LBB31:
  51:mtk_c.c       **** 	*(--ssp1) = (int)task_tab[id].task_addr;
 219               		.loc 1 51 0
 220 0154 2200      		move.l %d0,%d1
 221               	.LVL26:
 222 0156 780B      		moveq #11,%d4
 223 0158 E9A9      		lsl.l %d4,%d1
 224 015a 2441      		move.l %d1,%a2
 225 015c D5FC 0000 		add.l #stacks+2048,%a2
 225      0000 
 226               	.LVL27:
  52:mtk_c.c       **** 	ssp2 = (unsigned short int *)ssp1;    //2バイトに切り替え
 227               		.loc 1 52 0
 228 0162 2543 FFFC 		move.l %d3,-4(%a2)
 229               	.LVL28:
  54:mtk_c.c       **** 	ssp1 = (int *)ssp2;
 230               		.loc 1 54 0
 231 0166 426A FFFA 		clr.w -6(%a2)
 232               	.LVL29:
  60:mtk_c.c       **** 	
 233               		.loc 1 60 0
 234 016a 2001      		move.l %d1,%d0
 235 016c 0680 0000 		add.l #stacks+1024,%d0
 235      0000 
 236 0172 2540 FFBA 		move.l %d0,-70(%a2)
 237               	.LVL30:
 238 0176 45EA FFBA 		lea (-70,%a2),%a2
 239               	.LVL31:
 240 017a 234A 0004 		move.l %a2,4(%a1)
 241               	.LVL32:
 242               	.LBE31:
 243               	.LBE37:
 244               	.LBB38:
 245               	.LBB35:
  96:mtk_c.c       ****     
 246               		.loc 1 96 0
 247 017e 2039 0000 		move.l ready,%d0
 247      0000 


 248               	.LVL33:
  98:mtk_c.c       ****         *q = task_id;
 249               		.loc 1 98 0
 250 0184 6600 FF64 		jne .L15
 251 0188 6090      		jra .L18
 252               	.LBE35:
 253               	.LBE38:
 254               		.cfi_endproc
 255               	.LFE4:
 256               		.size	set_task, .-set_task
 257               		.align	2
 258               		.globl	init_stack
 259               		.type	init_stack, @function
 260               	init_stack:
 261               	.LFB5:
  47:mtk_c.c       **** 	int *ssp1;                            //4バイト用int
 262               		.loc 1 47 0
 263               		.cfi_startproc
 264               	.LVL34:
 265 018a 2F02      		move.l %d2,-(%sp)
 266               		.cfi_def_cfa_offset 8
 267               		.cfi_offset 2, -8
 268 018c 242F 0008 		move.l 8(%sp),%d2
  51:mtk_c.c       **** 	*(--ssp1) = (int)task_tab[id].task_addr;
 269               		.loc 1 51 0
 270 0190 2002      		move.l %d2,%d0
 271 0192 720B      		moveq #11,%d1
 272 0194 E3A8      		lsl.l %d1,%d0
 273 0196 2040      		move.l %d0,%a0
 274 0198 D1FC 0000 		add.l #stacks,%a0
 274      0000 
 275               	.LVL35:
  52:mtk_c.c       **** 	ssp2 = (unsigned short int *)ssp1;    //2バイトに切り替え
 276               		.loc 1 52 0
 277 019e 2202      		move.l %d2,%d1
 278 01a0 D282      		add.l %d2,%d1
 279 01a2 D281      		add.l %d1,%d1
 280 01a4 D282      		add.l %d2,%d1
 281 01a6 D281      		add.l %d1,%d1
 282 01a8 D281      		add.l %d1,%d1
 283 01aa 43F9 0000 		lea task_tab,%a1
 283      0000 
 284 01b0 2171 1800 		move.l (%a1,%d1.l),-4(%a0)
 284      FFFC 
 285               	.LVL36:
  54:mtk_c.c       **** 	ssp1 = (int *)ssp2;
 286               		.loc 1 54 0
 287 01b6 4268 FFFA 		clr.w -6(%a0)
 288               	.LVL37:
  60:mtk_c.c       **** 	
 289               		.loc 1 60 0
 290 01ba 700B      		moveq #11,%d0
 291 01bc E1AA      		lsl.l %d0,%d2
 292 01be 0682 0000 		add.l #stacks-1024,%d2
 292      0000 
 293 01c4 2142 FFBA 		move.l %d2,-70(%a0)
 294               	.LVL38:


  64:mtk_c.c       **** 
 295               		.loc 1 64 0
 296 01c8 70BA      		moveq #-70,%d0
 297 01ca D088      		add.l %a0,%d0
 298               	.LVL39:
 299 01cc 241F      		move.l (%sp)+,%d2
 300 01ce 4E75      		rts
 301               		.cfi_endproc
 302               	.LFE5:
 303               		.size	init_stack, .-init_stack
 304               		.align	2
 305               		.globl	begin_sch
 306               		.type	begin_sch, @function
 307               	begin_sch:
 308               	.LFB6:
  67:mtk_c.c       ****     int i;
 309               		.loc 1 67 0
 310               		.cfi_startproc
 311               	.LVL40:
 312               	.LBB39:
 313               	.LBB40:
  79:mtk_c.c       ****     // 先頭タスクを除去して新たなタスクidを登録
 314               		.loc 1 79 0
 315 01d0 2239 0000 		move.l ready,%d1
 315      0000 
 316               	.LVL41:
  81:mtk_c.c       ****     
 317               		.loc 1 81 0
 318 01d6 2001      		move.l %d1,%d0
 319 01d8 D081      		add.l %d1,%d0
 320 01da D080      		add.l %d0,%d0
 321 01dc D081      		add.l %d1,%d0
 322 01de D080      		add.l %d0,%d0
 323 01e0 D080      		add.l %d0,%d0
 324 01e2 2040      		move.l %d0,%a0
 325 01e4 D1FC 0000 		add.l #task_tab+16,%a0
 325      0000 
 326 01ea 23D0 0000 		move.l (%a0),ready
 326      0000 
 327               	.LVL42:
 328               	.LBE40:
 329               	.LBE39:
  70:mtk_c.c       **** 
 330               		.loc 1 70 0
 331 01f0 23C1 0000 		move.l %d1,curr_task
 331      0000 
  72:mtk_c.c       ****     first_task();
 332               		.loc 1 72 0
 333 01f6 4EB9 0000 		jsr init_timer
 333      0000 
 334               	.LVL43:
  73:mtk_c.c       ****     return;
 335               		.loc 1 73 0
 336 01fc 4EF9 0000 		jra first_task
 336      0000 
 337               	.LVL44:
 338               		.cfi_endproc


 339               	.LFE6:
 340               		.size	begin_sch, .-begin_sch
 341               		.align	2
 342               		.globl	removeq
 343               		.type	removeq, @function
 344               	removeq:
 345               	.LFB7:
  77:mtk_c.c       ****     // 先頭タスクのidを保存
 346               		.loc 1 77 0
 347               		.cfi_startproc
 348               	.LVL45:
 349 0202 226F 0004 		move.l 4(%sp),%a1
  79:mtk_c.c       ****     // 先頭タスクを除去して新たなタスクidを登録
 350               		.loc 1 79 0
 351 0206 2011      		move.l (%a1),%d0
 352               	.LVL46:
  81:mtk_c.c       ****     
 353               		.loc 1 81 0
 354 0208 2200      		move.l %d0,%d1
 355 020a D280      		add.l %d0,%d1
 356 020c D281      		add.l %d1,%d1
 357 020e D280      		add.l %d0,%d1
 358 0210 D281      		add.l %d1,%d1
 359 0212 D281      		add.l %d1,%d1
 360 0214 2041      		move.l %d1,%a0
 361 0216 D1FC 0000 		add.l #task_tab+16,%a0
 361      0000 
 362 021c 2290      		move.l (%a0),(%a1)
  84:mtk_c.c       **** 
 363               		.loc 1 84 0
 364 021e 4E75      		rts
 365               		.cfi_endproc
 366               	.LFE7:
 367               		.size	removeq, .-removeq
 368               		.align	2
 369               		.globl	sched
 370               		.type	sched, @function
 371               	sched:
 372               	.LFB8:
  86:mtk_c.c       ****     //printf("\n\n timer ---------\n\n");
 373               		.loc 1 86 0
 374               		.cfi_startproc
 375               	.LVL47:
 376               	.LBB41:
 377               	.LBB42:
  79:mtk_c.c       ****     // 先頭タスクを除去して新たなタスクidを登録
 378               		.loc 1 79 0
 379 0220 2239 0000 		move.l ready,%d1
 379      0000 
 380               	.LVL48:
  81:mtk_c.c       ****     
 381               		.loc 1 81 0
 382 0226 2001      		move.l %d1,%d0
 383 0228 D081      		add.l %d1,%d0
 384 022a D080      		add.l %d0,%d0
 385 022c D081      		add.l %d1,%d0
 386 022e D080      		add.l %d0,%d0


 387 0230 D080      		add.l %d0,%d0
 388 0232 2040      		move.l %d0,%a0
 389 0234 D1FC 0000 		add.l #task_tab+16,%a0
 389      0000 
 390 023a 23D0 0000 		move.l (%a0),ready
 390      0000 
 391               	.LVL49:
 392               	.LBE42:
 393               	.LBE41:
  89:mtk_c.c       ****     // next_taskがNULLの場合はタイマ割り込みが来るまでループ
 394               		.loc 1 89 0
 395 0240 23C1 0000 		move.l %d1,next_task
 395      0000 
  91:mtk_c.c       **** }
 396               		.loc 1 91 0
 397 0246 6602      		jne .L22
 398               	.L24:
 399 0248 60FE      		jra .L24
 400               	.L22:
 401 024a 4E75      		rts
 402               		.cfi_endproc
 403               	.LFE8:
 404               		.size	sched, .-sched
 405               		.align	2
 406               		.globl	addq
 407               		.type	addq, @function
 408               	addq:
 409               	.LFB9:
  94:mtk_c.c       ****     // idとして先頭idを保存
 410               		.loc 1 94 0
 411               		.cfi_startproc
 412               	.LVL50:
 413 024c 226F 0004 		move.l 4(%sp),%a1
 414 0250 206F 0008 		move.l 8(%sp),%a0
  96:mtk_c.c       ****     
 415               		.loc 1 96 0
 416 0254 2011      		move.l (%a1),%d0
 417               	.LVL51:
  98:mtk_c.c       ****         *q = task_id;
 418               		.loc 1 98 0
 419 0256 6718      		jeq .L33
 420               	.LVL52:
 421               	.L32:
 105:mtk_c.c       ****     
 422               		.loc 1 105 0 discriminator 1
 423 0258 2200      		move.l %d0,%d1
 424 025a D280      		add.l %d0,%d1
 425 025c D281      		add.l %d1,%d1
 426 025e D081      		add.l %d1,%d0
 427               	.LVL53:
 428 0260 D080      		add.l %d0,%d0
 429 0262 D080      		add.l %d0,%d0
 430 0264 2240      		move.l %d0,%a1
 431 0266 D3FC 0000 		add.l #task_tab+16,%a1
 431      0000 
 432 026c 2011      		move.l (%a1),%d0
 433 026e 66E8      		jne .L32


 434               	.L33:
 108:mtk_c.c       ****     task_tab[task_id].next = NULLTASKID;
 435               		.loc 1 108 0
 436 0270 2288      		move.l %a0,(%a1)
 437               	.LVL54:
 438               		.loc 1 109 0
 439 0272 2008      		move.l %a0,%d0
 440 0274 D088      		add.l %a0,%d0
 441 0276 D080      		add.l %d0,%d0
 442 0278 D1C0      		add.l %d0,%a0
 443 027a D1C8      		add.l %a0,%a0
 444 027c D1C8      		add.l %a0,%a0
 445 027e D1FC 0000 		add.l #task_tab+16,%a0
 445      0000 
 446 0284 4290      		clr.l (%a0)
 447 0286 4E75      		rts
 448               		.cfi_endproc
 449               	.LFE9:
 450               		.size	addq, .-addq
 451               		.align	2
 452               		.globl	sleep
 453               		.type	sleep, @function
 454               	sleep:
 455               	.LFB10:
 110:mtk_c.c       ****     
 111:mtk_c.c       **** }
 112:mtk_c.c       **** 
 113:mtk_c.c       **** void sleep(int s_id){
 456               		.loc 1 113 0
 457               		.cfi_startproc
 458               	.LVL55:
 114:mtk_c.c       ****     TASK_ID_TYPE* head_q = &(semaphore[s_id].task_list);
 115:mtk_c.c       ****     // 該当セマフォの待ち行列に現タスクをつなぐ
 116:mtk_c.c       ****     addq(head_q, curr_task);
 459               		.loc 1 116 0
 460 0288 2279 0000 		move.l curr_task,%a1
 460      0000 
 461               	.LVL56:
 462               	.LBB43:
 463               	.LBB44:
  96:mtk_c.c       ****     
 464               		.loc 1 96 0
 465 028e 202F 0004 		move.l 4(%sp),%d0
 466 0292 E788      		lsl.l #3,%d0
 467 0294 2040      		move.l %d0,%a0
 468 0296 D1FC 0000 		add.l #semaphore+4,%a0
 468      0000 
 469               	.LVL57:
 470 029c 2010      		move.l (%a0),%d0
 471               	.LVL58:
  98:mtk_c.c       ****         *q = task_id;
 472               		.loc 1 98 0
 473 029e 6640      		jne .L39
 474               	.LVL59:
 475               	.L43:
 108:mtk_c.c       ****     task_tab[task_id].next = NULLTASKID;
 476               		.loc 1 108 0


 477 02a0 2089      		move.l %a1,(%a0)
 478               	.LVL60:
 109:mtk_c.c       ****     
 479               		.loc 1 109 0
 480 02a2 2009      		move.l %a1,%d0
 481 02a4 D089      		add.l %a1,%d0
 482 02a6 D080      		add.l %d0,%d0
 483 02a8 D3C0      		add.l %d0,%a1
 484               	.LVL61:
 485 02aa D3C9      		add.l %a1,%a1
 486 02ac D3C9      		add.l %a1,%a1
 487 02ae D3FC 0000 		add.l #task_tab+16,%a1
 487      0000 
 488 02b4 4291      		clr.l (%a1)
 489               	.LVL62:
 490               	.LBE44:
 491               	.LBE43:
 492               	.LBB46:
 493               	.LBB47:
 494               	.LBB48:
 495               	.LBB49:
  79:mtk_c.c       ****     // 先頭タスクを除去して新たなタスクidを登録
 496               		.loc 1 79 0
 497 02b6 2239 0000 		move.l ready,%d1
 497      0000 
 498               	.LVL63:
  81:mtk_c.c       ****     
 499               		.loc 1 81 0
 500 02bc 2001      		move.l %d1,%d0
 501 02be D081      		add.l %d1,%d0
 502 02c0 D080      		add.l %d0,%d0
 503 02c2 D081      		add.l %d1,%d0
 504 02c4 D080      		add.l %d0,%d0
 505 02c6 D080      		add.l %d0,%d0
 506 02c8 2040      		move.l %d0,%a0
 507 02ca D1FC 0000 		add.l #task_tab+16,%a0
 507      0000 
 508 02d0 23D0 0000 		move.l (%a0),ready
 508      0000 
 509               	.LVL64:
 510               	.LBE49:
 511               	.LBE48:
  89:mtk_c.c       ****     // next_taskがNULLの場合はタイマ割り込みが来るまでループ
 512               		.loc 1 89 0
 513 02d6 23C1 0000 		move.l %d1,next_task
 513      0000 
  91:mtk_c.c       **** }
 514               		.loc 1 91 0
 515 02dc 6634      		jne .L40
 516               	.L41:
 517 02de 60FE      		jra .L41
 518               	.LVL65:
 519               	.L39:
 520               	.LBE47:
 521               	.LBE46:
 522               	.LBB50:
 523               	.LBB45:


 105:mtk_c.c       ****     
 524               		.loc 1 105 0
 525 02e0 2200      		move.l %d0,%d1
 526 02e2 D280      		add.l %d0,%d1
 527 02e4 D281      		add.l %d1,%d1
 528 02e6 D081      		add.l %d1,%d0
 529               	.LVL66:
 530 02e8 D080      		add.l %d0,%d0
 531 02ea D080      		add.l %d0,%d0
 532 02ec 2040      		move.l %d0,%a0
 533 02ee D1FC 0000 		add.l #task_tab+16,%a0
 533      0000 
 534 02f4 2010      		move.l (%a0),%d0
 535 02f6 67A8      		jeq .L43
 536               	.LVL67:
 537 02f8 2200      		move.l %d0,%d1
 538 02fa D280      		add.l %d0,%d1
 539 02fc D281      		add.l %d1,%d1
 540 02fe D081      		add.l %d1,%d0
 541               	.LVL68:
 542 0300 D080      		add.l %d0,%d0
 543 0302 D080      		add.l %d0,%d0
 544 0304 2040      		move.l %d0,%a0
 545               	.LVL69:
 546 0306 D1FC 0000 		add.l #task_tab+16,%a0
 546      0000 
 547 030c 2010      		move.l (%a0),%d0
 548 030e 66D0      		jne .L39
 549 0310 608E      		jra .L43
 550               	.LVL70:
 551               	.L40:
 552               	.LBE45:
 553               	.LBE50:
 117:mtk_c.c       ****     // 次に実行するタスクidをnext_taskにセット
 118:mtk_c.c       ****     sched();
 119:mtk_c.c       ****     // タスクを切り替え
 120:mtk_c.c       ****     swtch();
 554               		.loc 1 120 0
 555 0312 4EF9 0000 		jra swtch
 555      0000 
 556               	.LVL71:
 557               		.cfi_endproc
 558               	.LFE10:
 559               		.size	sleep, .-sleep
 560               		.align	2
 561               		.globl	wakeup
 562               		.type	wakeup, @function
 563               	wakeup:
 564               	.LFB11:
 121:mtk_c.c       **** }
 122:mtk_c.c       **** 
 123:mtk_c.c       **** void wakeup(int s_id){
 565               		.loc 1 123 0
 566               		.cfi_startproc
 567               	.LVL72:
 568 0318 2F0A      		move.l %a2,-(%sp)
 569               		.cfi_def_cfa_offset 8


 570               		.cfi_offset 10, -8
 571 031a 2F02      		move.l %d2,-(%sp)
 572               		.cfi_def_cfa_offset 12
 573               		.cfi_offset 2, -12
 574               	.LVL73:
 575               	.LBB51:
 576               	.LBB52:
  79:mtk_c.c       ****     // 先頭タスクを除去して新たなタスクidを登録
 577               		.loc 1 79 0
 578 031c 202F 000C 		move.l 12(%sp),%d0
 579 0320 E788      		lsl.l #3,%d0
 580 0322 2440      		move.l %d0,%a2
 581 0324 D5FC 0000 		add.l #semaphore+4,%a2
 581      0000 
 582               	.LVL74:
 583 032a 2252      		move.l (%a2),%a1
 584               	.LVL75:
  81:mtk_c.c       ****     
 585               		.loc 1 81 0
 586 032c 2409      		move.l %a1,%d2
 587 032e D489      		add.l %a1,%d2
 588 0330 2002      		move.l %d2,%d0
 589 0332 D082      		add.l %d2,%d0
 590 0334 D089      		add.l %a1,%d0
 591 0336 D080      		add.l %d0,%d0
 592 0338 D080      		add.l %d0,%d0
 593 033a 2040      		move.l %d0,%a0
 594 033c D1FC 0000 		add.l #task_tab+16,%a0
 594      0000 
 595 0342 2490      		move.l (%a0),(%a2)
 596               	.LVL76:
 597               	.LBE52:
 598               	.LBE51:
 599               	.LBB53:
 600               	.LBB54:
  96:mtk_c.c       ****     
 601               		.loc 1 96 0
 602 0344 2039 0000 		move.l ready,%d0
 602      0000 
 603               	.LVL77:
  98:mtk_c.c       ****         *q = task_id;
 604               		.loc 1 98 0
 605 034a 6730      		jeq .L55
 606               	.LVL78:
 607               	.L52:
 105:mtk_c.c       ****     
 608               		.loc 1 105 0
 609 034c 2200      		move.l %d0,%d1
 610 034e D280      		add.l %d0,%d1
 611 0350 D281      		add.l %d1,%d1
 612 0352 D081      		add.l %d1,%d0
 613               	.LVL79:
 614 0354 D080      		add.l %d0,%d0
 615 0356 D080      		add.l %d0,%d0
 616 0358 2040      		move.l %d0,%a0
 617 035a D1FC 0000 		add.l #task_tab+16,%a0
 617      0000 


 618 0360 2010      		move.l (%a0),%d0
 619 0362 66E8      		jne .L52
 108:mtk_c.c       ****     task_tab[task_id].next = NULLTASKID;
 620               		.loc 1 108 0
 621 0364 2089      		move.l %a1,(%a0)
 109:mtk_c.c       ****     
 622               		.loc 1 109 0
 623 0366 D482      		add.l %d2,%d2
 624 0368 D3C2      		add.l %d2,%a1
 625 036a D3C9      		add.l %a1,%a1
 626 036c D3C9      		add.l %a1,%a1
 627 036e D3FC 0000 		add.l #task_tab+16,%a1
 627      0000 
 628 0374 4291      		clr.l (%a1)
 629               	.LVL80:
 630               	.LBE54:
 631               	.LBE53:
 124:mtk_c.c       ****     // セマフォの待ち行列の先頭タスクを取得
 125:mtk_c.c       ****     TASK_ID_TYPE* head_sem = &(semaphore[s_id].task_list);
 126:mtk_c.c       ****     // セマフォの待ち行列の先頭タスクをキューから除去
 127:mtk_c.c       ****     TASK_ID_TYPE head_task = removeq(head_sem);
 128:mtk_c.c       ****     // readyキューにその先頭タスクを追加
 129:mtk_c.c       ****     addq(&ready, head_task);
 130:mtk_c.c       **** }
 632               		.loc 1 130 0
 633 0376 241F      		move.l (%sp)+,%d2
 634 0378 245F      		move.l (%sp)+,%a2
 635               	.LVL81:
 636 037a 4E75      		rts
 637               	.LVL82:
 638               	.L55:
 639               	.LBB56:
 640               	.LBB55:
  99:mtk_c.c       ****         task_tab[task_id].next = NULLTASKID;
 641               		.loc 1 99 0
 642 037c 23C9 0000 		move.l %a1,ready
 642      0000 
 100:mtk_c.c       ****         return;
 643               		.loc 1 100 0
 644 0382 4290      		clr.l (%a0)
 645               	.LBE55:
 646               	.LBE56:
 647               		.loc 1 130 0
 648 0384 241F      		move.l (%sp)+,%d2
 649 0386 245F      		move.l (%sp)+,%a2
 650               	.LVL83:
 651 0388 4E75      		rts
 652               		.cfi_endproc
 653               	.LFE11:
 654               		.size	wakeup, .-wakeup
 655               		.align	2
 656               		.globl	p_body
 657               		.type	p_body, @function
 658               	p_body:
 659               	.LFB12:
 131:mtk_c.c       **** 
 132:mtk_c.c       **** void p_body(int s_id){


 660               		.loc 1 132 0
 661               		.cfi_startproc
 662               	.LVL84:
 663 038a 2F02      		move.l %d2,-(%sp)
 664               		.cfi_def_cfa_offset 8
 665               		.cfi_offset 2, -8
 666 038c 242F 0008 		move.l 8(%sp),%d2
 133:mtk_c.c       ****    
 134:mtk_c.c       ****    semaphore[s_id].count--; //セマフォのcount値を1減らす
 667               		.loc 1 134 0
 668 0390 41F9 0000 		lea semaphore,%a0
 668      0000 
 669 0396 2202      		move.l %d2,%d1
 670 0398 E789      		lsl.l #3,%d1
 671 039a 2030 1800 		move.l (%a0,%d1.l),%d0
 672 039e 5380      		subq.l #1,%d0
 673 03a0 2180 1800 		move.l %d0,(%a0,%d1.l)
 135:mtk_c.c       **** 
 136:mtk_c.c       ****    if (semaphore[s_id].count < 0){
 674               		.loc 1 136 0
 675 03a4 6D04      		jlt .L60
 137:mtk_c.c       ****          sleep(s_id);       //セマフォが獲得できない場合は休眠状態に入る
 138:mtk_c.c       **** }
 139:mtk_c.c       **** 
 140:mtk_c.c       **** }
 676               		.loc 1 140 0
 677 03a6 241F      		move.l (%sp)+,%d2
 678 03a8 4E75      		rts
 679               	.L60:
 680 03aa 241F      		move.l (%sp)+,%d2
 137:mtk_c.c       ****          sleep(s_id);       //セマフォが獲得できない場合は休眠状態に入る
 681               		.loc 1 137 0
 682 03ac 6000 FEDA 		jra sleep
 683               	.LVL85:
 684               		.cfi_endproc
 685               	.LFE12:
 686               		.size	p_body, .-p_body
 687               		.align	2
 688               		.globl	v_body
 689               		.type	v_body, @function
 690               	v_body:
 691               	.LFB13:
 141:mtk_c.c       **** 
 142:mtk_c.c       **** void v_body(int s_id){
 692               		.loc 1 142 0
 693               		.cfi_startproc
 694               	.LVL86:
 695 03b0 2F03      		move.l %d3,-(%sp)
 696               		.cfi_def_cfa_offset 8
 697               		.cfi_offset 3, -8
 698 03b2 2F02      		move.l %d2,-(%sp)
 699               		.cfi_def_cfa_offset 12
 700               		.cfi_offset 2, -12
 143:mtk_c.c       **** 
 144:mtk_c.c       ****    semaphore[s_id].count++; //セマフォのcount値を１増やす
 701               		.loc 1 144 0
 702 03b4 41F9 0000 		lea semaphore,%a0


 702      0000 
 703 03ba 202F 000C 		move.l 12(%sp),%d0
 704 03be E788      		lsl.l #3,%d0
 705 03c0 2230 0800 		move.l (%a0,%d0.l),%d1
 706 03c4 5281      		addq.l #1,%d1
 707 03c6 2181 0800 		move.l %d1,(%a0,%d0.l)
 145:mtk_c.c       **** 
 146:mtk_c.c       ****    if (semaphore[s_id].count <= 0){
 708               		.loc 1 146 0
 709 03ca 6F06      		jle .L69
 147:mtk_c.c       ****          wakeup(s_id);      //セマフォが空けばそのセマフォを待っているタスク
 148:mtk_c.c       **** 
 149:mtk_c.c       **** }
 150:mtk_c.c       **** }
 710               		.loc 1 150 0
 711 03cc 241F      		move.l (%sp)+,%d2
 712 03ce 261F      		move.l (%sp)+,%d3
 713 03d0 4E75      		rts
 714               	.L69:
 715               	.LVL87:
 716               	.LBB57:
 717               	.LBB58:
 718               	.LBB59:
 719               	.LBB60:
  79:mtk_c.c       ****     // 先頭タスクを除去して新たなタスクidを登録
 720               		.loc 1 79 0
 721 03d2 2040      		move.l %d0,%a0
 722 03d4 D1FC 0000 		add.l #semaphore+4,%a0
 722      0000 
 723 03da 2410      		move.l (%a0),%d2
 724               	.LVL88:
  81:mtk_c.c       ****     
 725               		.loc 1 81 0
 726 03dc 2602      		move.l %d2,%d3
 727 03de D682      		add.l %d2,%d3
 728 03e0 2003      		move.l %d3,%d0
 729 03e2 D083      		add.l %d3,%d0
 730 03e4 D082      		add.l %d2,%d0
 731 03e6 D080      		add.l %d0,%d0
 732 03e8 D080      		add.l %d0,%d0
 733 03ea 2240      		move.l %d0,%a1
 734 03ec D3FC 0000 		add.l #task_tab+16,%a1
 734      0000 
 735 03f2 2091      		move.l (%a1),(%a0)
 736               	.LVL89:
 737               	.LBE60:
 738               	.LBE59:
 739               	.LBB61:
 740               	.LBB62:
  96:mtk_c.c       ****     
 741               		.loc 1 96 0
 742 03f4 2039 0000 		move.l ready,%d0
 742      0000 
 743               	.LVL90:
  98:mtk_c.c       ****         *q = task_id;
 744               		.loc 1 98 0
 745 03fa 6732      		jeq .L70


 746               	.LVL91:
 747               	.L66:
 105:mtk_c.c       ****     
 748               		.loc 1 105 0
 749 03fc 2200      		move.l %d0,%d1
 750 03fe D280      		add.l %d0,%d1
 751 0400 D281      		add.l %d1,%d1
 752 0402 D081      		add.l %d1,%d0
 753               	.LVL92:
 754 0404 D080      		add.l %d0,%d0
 755 0406 D080      		add.l %d0,%d0
 756 0408 2040      		move.l %d0,%a0
 757 040a D1FC 0000 		add.l #task_tab+16,%a0
 757      0000 
 758 0410 2010      		move.l (%a0),%d0
 759 0412 66E8      		jne .L66
 108:mtk_c.c       ****     task_tab[task_id].next = NULLTASKID;
 760               		.loc 1 108 0
 761 0414 2082      		move.l %d2,(%a0)
 109:mtk_c.c       ****     
 762               		.loc 1 109 0
 763 0416 D683      		add.l %d3,%d3
 764 0418 D483      		add.l %d3,%d2
 765 041a D482      		add.l %d2,%d2
 766 041c D482      		add.l %d2,%d2
 767 041e 2042      		move.l %d2,%a0
 768 0420 D1FC 0000 		add.l #task_tab+16,%a0
 768      0000 
 769 0426 4290      		clr.l (%a0)
 770               	.LBE62:
 771               	.LBE61:
 772               	.LBE58:
 773               	.LBE57:
 774               		.loc 1 150 0
 775 0428 241F      		move.l (%sp)+,%d2
 776 042a 261F      		move.l (%sp)+,%d3
 777 042c 4E75      		rts
 778               	.LVL93:
 779               	.L70:
 780               	.LBB66:
 781               	.LBB65:
 782               	.LBB64:
 783               	.LBB63:
  99:mtk_c.c       ****         task_tab[task_id].next = NULLTASKID;
 784               		.loc 1 99 0
 785 042e 23C2 0000 		move.l %d2,ready
 785      0000 
 100:mtk_c.c       ****         return;
 786               		.loc 1 100 0
 787 0434 4291      		clr.l (%a1)
 788               	.LBE63:
 789               	.LBE64:
 790               	.LBE65:
 791               	.LBE66:
 792               		.loc 1 150 0
 793 0436 241F      		move.l (%sp)+,%d2
 794 0438 261F      		move.l (%sp)+,%d3


 795 043a 4E75      		rts
 796               		.cfi_endproc
 797               	.LFE13:
 798               		.size	v_body, .-v_body
 799               		.comm	stacks,14336,1
 800               		.comm	task_tab,160,2
 801               		.comm	semaphore,24,2
 802               		.comm	ready,4,2
 803               		.comm	next_task,4,2
 804               		.comm	new_task,4,2
 805               		.comm	curr_task,4,2
 806               	.Letext0:
 807               		.file 2 "mtk_c.h"
 808               		.file 3 "/usr/local/m68k-elf/include/sys/lock.h"
 809               		.file 4 "/usr/local/m68k-elf/include/sys/_types.h"
 810               		.file 5 "/usr/local/lib/gcc/m68k-elf/5.5.0/include/stddef.h"
 811               		.file 6 "/usr/local/m68k-elf/include/sys/reent.h"
 812               		.section	.debug_info,"",@progbits
 813               	.Ldebug_info0:
 814 0000 0000 0F1D 		.long	0xf1d
 815 0004 0004      		.word	0x4
 816 0006 0000 0000 		.long	.Ldebug_abbrev0
 817 000a 04        		.byte	0x4
 818 000b 01        		.uleb128 0x1
 819 000c 0000 0000 		.long	.LASF162
 820 0010 0C        		.byte	0xc
 821 0011 0000 0000 		.long	.LASF163
 822 0015 0000 0000 		.long	.LASF164
 823 0019 0000 0000 		.long	.Ltext0
 824 001d 0000 043C 		.long	.Letext0-.Ltext0
 825 0021 0000 0000 		.long	.Ldebug_line0
 826 0025 02        		.uleb128 0x2
 827 0026 0000 0000 		.long	.LASF2
 828 002a 02        		.byte	0x2
 829 002b 10        		.byte	0x10
 830 002c 0000 0030 		.long	0x30
 831 0030 03        		.uleb128 0x3
 832 0031 04        		.byte	0x4
 833 0032 05        		.byte	0x5
 834 0033 696E 7400 		.string	"int"
 835 0037 04        		.uleb128 0x4
 836 0038 08        		.byte	0x8
 837 0039 02        		.byte	0x2
 838 003a 13        		.byte	0x13
 839 003b 0000 0058 		.long	0x58
 840 003f 05        		.uleb128 0x5
 841 0040 0000 0000 		.long	.LASF0
 842 0044 02        		.byte	0x2
 843 0045 14        		.byte	0x14
 844 0046 0000 0030 		.long	0x30
 845 004a 00        		.byte	0
 846 004b 05        		.uleb128 0x5
 847 004c 0000 0000 		.long	.LASF1
 848 0050 02        		.byte	0x2
 849 0051 15        		.byte	0x15
 850 0052 0000 0025 		.long	0x25
 851 0056 04        		.byte	0x4


 852 0057 00        		.byte	0
 853 0058 02        		.uleb128 0x2
 854 0059 0000 0000 		.long	.LASF3
 855 005d 02        		.byte	0x2
 856 005e 16        		.byte	0x16
 857 005f 0000 0037 		.long	0x37
 858 0063 04        		.uleb128 0x4
 859 0064 14        		.byte	0x14
 860 0065 02        		.byte	0x2
 861 0066 18        		.byte	0x18
 862 0067 0000 00A8 		.long	0xa8
 863 006b 05        		.uleb128 0x5
 864 006c 0000 0000 		.long	.LASF4
 865 0070 02        		.byte	0x2
 866 0071 19        		.byte	0x19
 867 0072 0000 00AF 		.long	0xaf
 868 0076 00        		.byte	0
 869 0077 05        		.uleb128 0x5
 870 0078 0000 0000 		.long	.LASF5
 871 007c 02        		.byte	0x2
 872 007d 1A        		.byte	0x1a
 873 007e 0000 00B5 		.long	0xb5
 874 0082 04        		.byte	0x4
 875 0083 05        		.uleb128 0x5
 876 0084 0000 0000 		.long	.LASF6
 877 0088 02        		.byte	0x2
 878 0089 1B        		.byte	0x1b
 879 008a 0000 0030 		.long	0x30
 880 008e 08        		.byte	0x8
 881 008f 05        		.uleb128 0x5
 882 0090 0000 0000 		.long	.LASF7
 883 0094 02        		.byte	0x2
 884 0095 1C        		.byte	0x1c
 885 0096 0000 0030 		.long	0x30
 886 009a 0C        		.byte	0xc
 887 009b 05        		.uleb128 0x5
 888 009c 0000 0000 		.long	.LASF8
 889 00a0 02        		.byte	0x2
 890 00a1 1D        		.byte	0x1d
 891 00a2 0000 0025 		.long	0x25
 892 00a6 10        		.byte	0x10
 893 00a7 00        		.byte	0
 894 00a8 06        		.uleb128 0x6
 895 00a9 0000 00AF 		.long	0xaf
 896 00ad 07        		.uleb128 0x7
 897 00ae 00        		.byte	0
 898 00af 08        		.uleb128 0x8
 899 00b0 04        		.byte	0x4
 900 00b1 0000 00A8 		.long	0xa8
 901 00b5 09        		.uleb128 0x9
 902 00b6 04        		.byte	0x4
 903 00b7 02        		.uleb128 0x2
 904 00b8 0000 0000 		.long	.LASF9
 905 00bc 02        		.byte	0x2
 906 00bd 1E        		.byte	0x1e
 907 00be 0000 0063 		.long	0x63
 908 00c2 0A        		.uleb128 0xa


 909 00c3 0800      		.word	0x800
 910 00c5 02        		.byte	0x2
 911 00c6 20        		.byte	0x20
 912 00c7 0000 00E5 		.long	0xe5
 913 00cb 05        		.uleb128 0x5
 914 00cc 0000 0000 		.long	.LASF10
 915 00d0 02        		.byte	0x2
 916 00d1 21        		.byte	0x21
 917 00d2 0000 00E5 		.long	0xe5
 918 00d6 00        		.byte	0
 919 00d7 0B        		.uleb128 0xb
 920 00d8 0000 0000 		.long	.LASF11
 921 00dc 02        		.byte	0x2
 922 00dd 22        		.byte	0x22
 923 00de 0000 00E5 		.long	0xe5
 924 00e2 0400      		.word	0x400
 925 00e4 00        		.byte	0
 926 00e5 0C        		.uleb128 0xc
 927 00e6 0000 00FD 		.long	0xfd
 928 00ea 0000 00F6 		.long	0xf6
 929 00ee 0D        		.uleb128 0xd
 930 00ef 0000 00F6 		.long	0xf6
 931 00f3 03FF      		.word	0x3ff
 932 00f5 00        		.byte	0
 933 00f6 0E        		.uleb128 0xe
 934 00f7 04        		.byte	0x4
 935 00f8 07        		.byte	0x7
 936 00f9 0000 0000 		.long	.LASF12
 937 00fd 0E        		.uleb128 0xe
 938 00fe 01        		.byte	0x1
 939 00ff 06        		.byte	0x6
 940 0100 0000 0000 		.long	.LASF13
 941 0104 02        		.uleb128 0x2
 942 0105 0000 0000 		.long	.LASF14
 943 0109 02        		.byte	0x2
 944 010a 23        		.byte	0x23
 945 010b 0000 00C2 		.long	0xc2
 946 010f 0E        		.uleb128 0xe
 947 0110 01        		.byte	0x1
 948 0111 06        		.byte	0x6
 949 0112 0000 0000 		.long	.LASF15
 950 0116 0E        		.uleb128 0xe
 951 0117 01        		.byte	0x1
 952 0118 08        		.byte	0x8
 953 0119 0000 0000 		.long	.LASF16
 954 011d 0E        		.uleb128 0xe
 955 011e 02        		.byte	0x2
 956 011f 05        		.byte	0x5
 957 0120 0000 0000 		.long	.LASF17
 958 0124 0E        		.uleb128 0xe
 959 0125 02        		.byte	0x2
 960 0126 07        		.byte	0x7
 961 0127 0000 0000 		.long	.LASF18
 962 012b 0E        		.uleb128 0xe
 963 012c 04        		.byte	0x4
 964 012d 05        		.byte	0x5
 965 012e 0000 0000 		.long	.LASF19


 966 0132 0E        		.uleb128 0xe
 967 0133 04        		.byte	0x4
 968 0134 07        		.byte	0x7
 969 0135 0000 0000 		.long	.LASF20
 970 0139 0E        		.uleb128 0xe
 971 013a 08        		.byte	0x8
 972 013b 05        		.byte	0x5
 973 013c 0000 0000 		.long	.LASF21
 974 0140 0E        		.uleb128 0xe
 975 0141 08        		.byte	0x8
 976 0142 07        		.byte	0x7
 977 0143 0000 0000 		.long	.LASF22
 978 0147 0E        		.uleb128 0xe
 979 0148 0C        		.byte	0xc
 980 0149 04        		.byte	0x4
 981 014a 0000 0000 		.long	.LASF23
 982 014e 02        		.uleb128 0x2
 983 014f 0000 0000 		.long	.LASF24
 984 0153 03        		.byte	0x3
 985 0154 0C        		.byte	0xc
 986 0155 0000 0030 		.long	0x30
 987 0159 02        		.uleb128 0x2
 988 015a 0000 0000 		.long	.LASF25
 989 015e 04        		.byte	0x4
 990 015f 2C        		.byte	0x2c
 991 0160 0000 012B 		.long	0x12b
 992 0164 02        		.uleb128 0x2
 993 0165 0000 0000 		.long	.LASF26
 994 0169 04        		.byte	0x4
 995 016a 72        		.byte	0x72
 996 016b 0000 012B 		.long	0x12b
 997 016f 02        		.uleb128 0x2
 998 0170 0000 0000 		.long	.LASF27
 999 0174 04        		.byte	0x4
 1000 0175 91        		.byte	0x91
 1001 0176 0000 012B 		.long	0x12b
 1002 017a 0F        		.uleb128 0xf
 1003 017b 0000 0000 		.long	.LASF28
 1004 017f 05        		.byte	0x5
 1005 0180 0165      		.word	0x165
 1006 0182 0000 0186 		.long	0x186
 1007 0186 0E        		.uleb128 0xe
 1008 0187 04        		.byte	0x4
 1009 0188 07        		.byte	0x7
 1010 0189 0000 0000 		.long	.LASF29
 1011 018d 10        		.uleb128 0x10
 1012 018e 04        		.byte	0x4
 1013 018f 04        		.byte	0x4
 1014 0190 A6        		.byte	0xa6
 1015 0191 0000 01AC 		.long	0x1ac
 1016 0195 11        		.uleb128 0x11
 1017 0196 0000 0000 		.long	.LASF30
 1018 019a 04        		.byte	0x4
 1019 019b A8        		.byte	0xa8
 1020 019c 0000 017A 		.long	0x17a
 1021 01a0 11        		.uleb128 0x11
 1022 01a1 0000 0000 		.long	.LASF31


 1023 01a5 04        		.byte	0x4
 1024 01a6 A9        		.byte	0xa9
 1025 01a7 0000 01AC 		.long	0x1ac
 1026 01ab 00        		.byte	0
 1027 01ac 0C        		.uleb128 0xc
 1028 01ad 0000 0116 		.long	0x116
 1029 01b1 0000 01BC 		.long	0x1bc
 1030 01b5 12        		.uleb128 0x12
 1031 01b6 0000 00F6 		.long	0xf6
 1032 01ba 03        		.byte	0x3
 1033 01bb 00        		.byte	0
 1034 01bc 04        		.uleb128 0x4
 1035 01bd 08        		.byte	0x8
 1036 01be 04        		.byte	0x4
 1037 01bf A3        		.byte	0xa3
 1038 01c0 0000 01DD 		.long	0x1dd
 1039 01c4 05        		.uleb128 0x5
 1040 01c5 0000 0000 		.long	.LASF32
 1041 01c9 04        		.byte	0x4
 1042 01ca A5        		.byte	0xa5
 1043 01cb 0000 0030 		.long	0x30
 1044 01cf 00        		.byte	0
 1045 01d0 05        		.uleb128 0x5
 1046 01d1 0000 0000 		.long	.LASF33
 1047 01d5 04        		.byte	0x4
 1048 01d6 AA        		.byte	0xaa
 1049 01d7 0000 018D 		.long	0x18d
 1050 01db 04        		.byte	0x4
 1051 01dc 00        		.byte	0
 1052 01dd 02        		.uleb128 0x2
 1053 01de 0000 0000 		.long	.LASF34
 1054 01e2 04        		.byte	0x4
 1055 01e3 AB        		.byte	0xab
 1056 01e4 0000 01BC 		.long	0x1bc
 1057 01e8 02        		.uleb128 0x2
 1058 01e9 0000 0000 		.long	.LASF35
 1059 01ed 04        		.byte	0x4
 1060 01ee AF        		.byte	0xaf
 1061 01ef 0000 014E 		.long	0x14e
 1062 01f3 02        		.uleb128 0x2
 1063 01f4 0000 0000 		.long	.LASF36
 1064 01f8 06        		.byte	0x6
 1065 01f9 16        		.byte	0x16
 1066 01fa 0000 0132 		.long	0x132
 1067 01fe 13        		.uleb128 0x13
 1068 01ff 0000 0000 		.long	.LASF41
 1069 0203 18        		.byte	0x18
 1070 0204 06        		.byte	0x6
 1071 0205 2F        		.byte	0x2f
 1072 0206 0000 0251 		.long	0x251
 1073 020a 05        		.uleb128 0x5
 1074 020b 0000 0000 		.long	.LASF37
 1075 020f 06        		.byte	0x6
 1076 0210 31        		.byte	0x31
 1077 0211 0000 0251 		.long	0x251
 1078 0215 00        		.byte	0
 1079 0216 14        		.uleb128 0x14


 1080 0217 5F6B 00   		.string	"_k"
 1081 021a 06        		.byte	0x6
 1082 021b 32        		.byte	0x32
 1083 021c 0000 0030 		.long	0x30
 1084 0220 04        		.byte	0x4
 1085 0221 05        		.uleb128 0x5
 1086 0222 0000 0000 		.long	.LASF38
 1087 0226 06        		.byte	0x6
 1088 0227 32        		.byte	0x32
 1089 0228 0000 0030 		.long	0x30
 1090 022c 08        		.byte	0x8
 1091 022d 05        		.uleb128 0x5
 1092 022e 0000 0000 		.long	.LASF39
 1093 0232 06        		.byte	0x6
 1094 0233 32        		.byte	0x32
 1095 0234 0000 0030 		.long	0x30
 1096 0238 0C        		.byte	0xc
 1097 0239 05        		.uleb128 0x5
 1098 023a 0000 0000 		.long	.LASF40
 1099 023e 06        		.byte	0x6
 1100 023f 32        		.byte	0x32
 1101 0240 0000 0030 		.long	0x30
 1102 0244 10        		.byte	0x10
 1103 0245 14        		.uleb128 0x14
 1104 0246 5F78 00   		.string	"_x"
 1105 0249 06        		.byte	0x6
 1106 024a 33        		.byte	0x33
 1107 024b 0000 0257 		.long	0x257
 1108 024f 14        		.byte	0x14
 1109 0250 00        		.byte	0
 1110 0251 08        		.uleb128 0x8
 1111 0252 04        		.byte	0x4
 1112 0253 0000 01FE 		.long	0x1fe
 1113 0257 0C        		.uleb128 0xc
 1114 0258 0000 01F3 		.long	0x1f3
 1115 025c 0000 0267 		.long	0x267
 1116 0260 12        		.uleb128 0x12
 1117 0261 0000 00F6 		.long	0xf6
 1118 0265 00        		.byte	0
 1119 0266 00        		.byte	0
 1120 0267 13        		.uleb128 0x13
 1121 0268 0000 0000 		.long	.LASF42
 1122 026c 24        		.byte	0x24
 1123 026d 06        		.byte	0x6
 1124 026e 37        		.byte	0x37
 1125 026f 0000 02E0 		.long	0x2e0
 1126 0273 05        		.uleb128 0x5
 1127 0274 0000 0000 		.long	.LASF43
 1128 0278 06        		.byte	0x6
 1129 0279 39        		.byte	0x39
 1130 027a 0000 0030 		.long	0x30
 1131 027e 00        		.byte	0
 1132 027f 05        		.uleb128 0x5
 1133 0280 0000 0000 		.long	.LASF44
 1134 0284 06        		.byte	0x6
 1135 0285 3A        		.byte	0x3a
 1136 0286 0000 0030 		.long	0x30


 1137 028a 04        		.byte	0x4
 1138 028b 05        		.uleb128 0x5
 1139 028c 0000 0000 		.long	.LASF45
 1140 0290 06        		.byte	0x6
 1141 0291 3B        		.byte	0x3b
 1142 0292 0000 0030 		.long	0x30
 1143 0296 08        		.byte	0x8
 1144 0297 05        		.uleb128 0x5
 1145 0298 0000 0000 		.long	.LASF46
 1146 029c 06        		.byte	0x6
 1147 029d 3C        		.byte	0x3c
 1148 029e 0000 0030 		.long	0x30
 1149 02a2 0C        		.byte	0xc
 1150 02a3 05        		.uleb128 0x5
 1151 02a4 0000 0000 		.long	.LASF47
 1152 02a8 06        		.byte	0x6
 1153 02a9 3D        		.byte	0x3d
 1154 02aa 0000 0030 		.long	0x30
 1155 02ae 10        		.byte	0x10
 1156 02af 05        		.uleb128 0x5
 1157 02b0 0000 0000 		.long	.LASF48
 1158 02b4 06        		.byte	0x6
 1159 02b5 3E        		.byte	0x3e
 1160 02b6 0000 0030 		.long	0x30
 1161 02ba 14        		.byte	0x14
 1162 02bb 05        		.uleb128 0x5
 1163 02bc 0000 0000 		.long	.LASF49
 1164 02c0 06        		.byte	0x6
 1165 02c1 3F        		.byte	0x3f
 1166 02c2 0000 0030 		.long	0x30
 1167 02c6 18        		.byte	0x18
 1168 02c7 05        		.uleb128 0x5
 1169 02c8 0000 0000 		.long	.LASF50
 1170 02cc 06        		.byte	0x6
 1171 02cd 40        		.byte	0x40
 1172 02ce 0000 0030 		.long	0x30
 1173 02d2 1C        		.byte	0x1c
 1174 02d3 05        		.uleb128 0x5
 1175 02d4 0000 0000 		.long	.LASF51
 1176 02d8 06        		.byte	0x6
 1177 02d9 41        		.byte	0x41
 1178 02da 0000 0030 		.long	0x30
 1179 02de 20        		.byte	0x20
 1180 02df 00        		.byte	0
 1181 02e0 15        		.uleb128 0x15
 1182 02e1 0000 0000 		.long	.LASF52
 1183 02e5 0108      		.word	0x108
 1184 02e7 06        		.byte	0x6
 1185 02e8 4A        		.byte	0x4a
 1186 02e9 0000 0320 		.long	0x320
 1187 02ed 05        		.uleb128 0x5
 1188 02ee 0000 0000 		.long	.LASF53
 1189 02f2 06        		.byte	0x6
 1190 02f3 4B        		.byte	0x4b
 1191 02f4 0000 0320 		.long	0x320
 1192 02f8 00        		.byte	0
 1193 02f9 05        		.uleb128 0x5


 1194 02fa 0000 0000 		.long	.LASF54
 1195 02fe 06        		.byte	0x6
 1196 02ff 4C        		.byte	0x4c
 1197 0300 0000 0320 		.long	0x320
 1198 0304 80        		.byte	0x80
 1199 0305 0B        		.uleb128 0xb
 1200 0306 0000 0000 		.long	.LASF55
 1201 030a 06        		.byte	0x6
 1202 030b 4E        		.byte	0x4e
 1203 030c 0000 01F3 		.long	0x1f3
 1204 0310 0100      		.word	0x100
 1205 0312 0B        		.uleb128 0xb
 1206 0313 0000 0000 		.long	.LASF56
 1207 0317 06        		.byte	0x6
 1208 0318 51        		.byte	0x51
 1209 0319 0000 01F3 		.long	0x1f3
 1210 031d 0104      		.word	0x104
 1211 031f 00        		.byte	0
 1212 0320 0C        		.uleb128 0xc
 1213 0321 0000 00B5 		.long	0xb5
 1214 0325 0000 0330 		.long	0x330
 1215 0329 12        		.uleb128 0x12
 1216 032a 0000 00F6 		.long	0xf6
 1217 032e 1F        		.byte	0x1f
 1218 032f 00        		.byte	0
 1219 0330 15        		.uleb128 0x15
 1220 0331 0000 0000 		.long	.LASF57
 1221 0335 0190      		.word	0x190
 1222 0337 06        		.byte	0x6
 1223 0338 5D        		.byte	0x5d
 1224 0339 0000 036E 		.long	0x36e
 1225 033d 05        		.uleb128 0x5
 1226 033e 0000 0000 		.long	.LASF37
 1227 0342 06        		.byte	0x6
 1228 0343 5E        		.byte	0x5e
 1229 0344 0000 036E 		.long	0x36e
 1230 0348 00        		.byte	0
 1231 0349 05        		.uleb128 0x5
 1232 034a 0000 0000 		.long	.LASF58
 1233 034e 06        		.byte	0x6
 1234 034f 5F        		.byte	0x5f
 1235 0350 0000 0030 		.long	0x30
 1236 0354 04        		.byte	0x4
 1237 0355 05        		.uleb128 0x5
 1238 0356 0000 0000 		.long	.LASF59
 1239 035a 06        		.byte	0x6
 1240 035b 61        		.byte	0x61
 1241 035c 0000 0374 		.long	0x374
 1242 0360 08        		.byte	0x8
 1243 0361 05        		.uleb128 0x5
 1244 0362 0000 0000 		.long	.LASF52
 1245 0366 06        		.byte	0x6
 1246 0367 62        		.byte	0x62
 1247 0368 0000 02E0 		.long	0x2e0
 1248 036c 88        		.byte	0x88
 1249 036d 00        		.byte	0
 1250 036e 08        		.uleb128 0x8


 1251 036f 04        		.byte	0x4
 1252 0370 0000 0330 		.long	0x330
 1253 0374 0C        		.uleb128 0xc
 1254 0375 0000 0384 		.long	0x384
 1255 0379 0000 0384 		.long	0x384
 1256 037d 12        		.uleb128 0x12
 1257 037e 0000 00F6 		.long	0xf6
 1258 0382 1F        		.byte	0x1f
 1259 0383 00        		.byte	0
 1260 0384 08        		.uleb128 0x8
 1261 0385 04        		.byte	0x4
 1262 0386 0000 038A 		.long	0x38a
 1263 038a 16        		.uleb128 0x16
 1264 038b 13        		.uleb128 0x13
 1265 038c 0000 0000 		.long	.LASF60
 1266 0390 08        		.byte	0x8
 1267 0391 06        		.byte	0x6
 1268 0392 75        		.byte	0x75
 1269 0393 0000 03B0 		.long	0x3b0
 1270 0397 05        		.uleb128 0x5
 1271 0398 0000 0000 		.long	.LASF61
 1272 039c 06        		.byte	0x6
 1273 039d 76        		.byte	0x76
 1274 039e 0000 03B0 		.long	0x3b0
 1275 03a2 00        		.byte	0
 1276 03a3 05        		.uleb128 0x5
 1277 03a4 0000 0000 		.long	.LASF62
 1278 03a8 06        		.byte	0x6
 1279 03a9 77        		.byte	0x77
 1280 03aa 0000 0030 		.long	0x30
 1281 03ae 04        		.byte	0x4
 1282 03af 00        		.byte	0
 1283 03b0 08        		.uleb128 0x8
 1284 03b1 04        		.byte	0x4
 1285 03b2 0000 0116 		.long	0x116
 1286 03b6 13        		.uleb128 0x13
 1287 03b7 0000 0000 		.long	.LASF63
 1288 03bb 68        		.byte	0x68
 1289 03bc 06        		.byte	0x6
 1290 03bd B5        		.byte	0xb5
 1291 03be 0000 04E0 		.long	0x4e0
 1292 03c2 14        		.uleb128 0x14
 1293 03c3 5F70 00   		.string	"_p"
 1294 03c6 06        		.byte	0x6
 1295 03c7 B6        		.byte	0xb6
 1296 03c8 0000 03B0 		.long	0x3b0
 1297 03cc 00        		.byte	0
 1298 03cd 14        		.uleb128 0x14
 1299 03ce 5F72 00   		.string	"_r"
 1300 03d1 06        		.byte	0x6
 1301 03d2 B7        		.byte	0xb7
 1302 03d3 0000 0030 		.long	0x30
 1303 03d7 04        		.byte	0x4
 1304 03d8 14        		.uleb128 0x14
 1305 03d9 5F77 00   		.string	"_w"
 1306 03dc 06        		.byte	0x6
 1307 03dd B8        		.byte	0xb8


 1308 03de 0000 0030 		.long	0x30
 1309 03e2 08        		.byte	0x8
 1310 03e3 05        		.uleb128 0x5
 1311 03e4 0000 0000 		.long	.LASF64
 1312 03e8 06        		.byte	0x6
 1313 03e9 B9        		.byte	0xb9
 1314 03ea 0000 011D 		.long	0x11d
 1315 03ee 0C        		.byte	0xc
 1316 03ef 05        		.uleb128 0x5
 1317 03f0 0000 0000 		.long	.LASF65
 1318 03f4 06        		.byte	0x6
 1319 03f5 BA        		.byte	0xba
 1320 03f6 0000 011D 		.long	0x11d
 1321 03fa 0E        		.byte	0xe
 1322 03fb 14        		.uleb128 0x14
 1323 03fc 5F62 6600 		.string	"_bf"
 1324 0400 06        		.byte	0x6
 1325 0401 BB        		.byte	0xbb
 1326 0402 0000 038B 		.long	0x38b
 1327 0406 10        		.byte	0x10
 1328 0407 05        		.uleb128 0x5
 1329 0408 0000 0000 		.long	.LASF66
 1330 040c 06        		.byte	0x6
 1331 040d BC        		.byte	0xbc
 1332 040e 0000 0030 		.long	0x30
 1333 0412 18        		.byte	0x18
 1334 0413 05        		.uleb128 0x5
 1335 0414 0000 0000 		.long	.LASF67
 1336 0418 06        		.byte	0x6
 1337 0419 C3        		.byte	0xc3
 1338 041a 0000 00B5 		.long	0xb5
 1339 041e 1C        		.byte	0x1c
 1340 041f 05        		.uleb128 0x5
 1341 0420 0000 0000 		.long	.LASF68
 1342 0424 06        		.byte	0x6
 1343 0425 C5        		.byte	0xc5
 1344 0426 0000 063C 		.long	0x63c
 1345 042a 20        		.byte	0x20
 1346 042b 05        		.uleb128 0x5
 1347 042c 0000 0000 		.long	.LASF69
 1348 0430 06        		.byte	0x6
 1349 0431 C7        		.byte	0xc7
 1350 0432 0000 066B 		.long	0x66b
 1351 0436 24        		.byte	0x24
 1352 0437 05        		.uleb128 0x5
 1353 0438 0000 0000 		.long	.LASF70
 1354 043c 06        		.byte	0x6
 1355 043d CA        		.byte	0xca
 1356 043e 0000 068F 		.long	0x68f
 1357 0442 28        		.byte	0x28
 1358 0443 05        		.uleb128 0x5
 1359 0444 0000 0000 		.long	.LASF71
 1360 0448 06        		.byte	0x6
 1361 0449 CB        		.byte	0xcb
 1362 044a 0000 06A9 		.long	0x6a9
 1363 044e 2C        		.byte	0x2c
 1364 044f 14        		.uleb128 0x14


 1365 0450 5F75 6200 		.string	"_ub"
 1366 0454 06        		.byte	0x6
 1367 0455 CE        		.byte	0xce
 1368 0456 0000 038B 		.long	0x38b
 1369 045a 30        		.byte	0x30
 1370 045b 14        		.uleb128 0x14
 1371 045c 5F75 7000 		.string	"_up"
 1372 0460 06        		.byte	0x6
 1373 0461 CF        		.byte	0xcf
 1374 0462 0000 03B0 		.long	0x3b0
 1375 0466 38        		.byte	0x38
 1376 0467 14        		.uleb128 0x14
 1377 0468 5F75 7200 		.string	"_ur"
 1378 046c 06        		.byte	0x6
 1379 046d D0        		.byte	0xd0
 1380 046e 0000 0030 		.long	0x30
 1381 0472 3C        		.byte	0x3c
 1382 0473 05        		.uleb128 0x5
 1383 0474 0000 0000 		.long	.LASF72
 1384 0478 06        		.byte	0x6
 1385 0479 D3        		.byte	0xd3
 1386 047a 0000 06AF 		.long	0x6af
 1387 047e 40        		.byte	0x40
 1388 047f 05        		.uleb128 0x5
 1389 0480 0000 0000 		.long	.LASF73
 1390 0484 06        		.byte	0x6
 1391 0485 D4        		.byte	0xd4
 1392 0486 0000 06BF 		.long	0x6bf
 1393 048a 43        		.byte	0x43
 1394 048b 14        		.uleb128 0x14
 1395 048c 5F6C 6200 		.string	"_lb"
 1396 0490 06        		.byte	0x6
 1397 0491 D7        		.byte	0xd7
 1398 0492 0000 038B 		.long	0x38b
 1399 0496 44        		.byte	0x44
 1400 0497 05        		.uleb128 0x5
 1401 0498 0000 0000 		.long	.LASF74
 1402 049c 06        		.byte	0x6
 1403 049d DA        		.byte	0xda
 1404 049e 0000 0030 		.long	0x30
 1405 04a2 4C        		.byte	0x4c
 1406 04a3 05        		.uleb128 0x5
 1407 04a4 0000 0000 		.long	.LASF75
 1408 04a8 06        		.byte	0x6
 1409 04a9 DB        		.byte	0xdb
 1410 04aa 0000 0159 		.long	0x159
 1411 04ae 50        		.byte	0x50
 1412 04af 05        		.uleb128 0x5
 1413 04b0 0000 0000 		.long	.LASF76
 1414 04b4 06        		.byte	0x6
 1415 04b5 DE        		.byte	0xde
 1416 04b6 0000 04FE 		.long	0x4fe
 1417 04ba 54        		.byte	0x54
 1418 04bb 05        		.uleb128 0x5
 1419 04bc 0000 0000 		.long	.LASF77
 1420 04c0 06        		.byte	0x6
 1421 04c1 E2        		.byte	0xe2


 1422 04c2 0000 01E8 		.long	0x1e8
 1423 04c6 58        		.byte	0x58
 1424 04c7 05        		.uleb128 0x5
 1425 04c8 0000 0000 		.long	.LASF78
 1426 04cc 06        		.byte	0x6
 1427 04cd E4        		.byte	0xe4
 1428 04ce 0000 01DD 		.long	0x1dd
 1429 04d2 5C        		.byte	0x5c
 1430 04d3 05        		.uleb128 0x5
 1431 04d4 0000 0000 		.long	.LASF79
 1432 04d8 06        		.byte	0x6
 1433 04d9 E5        		.byte	0xe5
 1434 04da 0000 0030 		.long	0x30
 1435 04de 64        		.byte	0x64
 1436 04df 00        		.byte	0
 1437 04e0 17        		.uleb128 0x17
 1438 04e1 0000 016F 		.long	0x16f
 1439 04e5 0000 04FE 		.long	0x4fe
 1440 04e9 18        		.uleb128 0x18
 1441 04ea 0000 04FE 		.long	0x4fe
 1442 04ee 18        		.uleb128 0x18
 1443 04ef 0000 00B5 		.long	0xb5
 1444 04f3 18        		.uleb128 0x18
 1445 04f4 0000 0636 		.long	0x636
 1446 04f8 18        		.uleb128 0x18
 1447 04f9 0000 0030 		.long	0x30
 1448 04fd 00        		.byte	0
 1449 04fe 08        		.uleb128 0x8
 1450 04ff 04        		.byte	0x4
 1451 0500 0000 0504 		.long	0x504
 1452 0504 19        		.uleb128 0x19
 1453 0505 0000 0000 		.long	.LASF80
 1454 0509 0422      		.word	0x422
 1455 050b 06        		.byte	0x6
 1456 050c 0239      		.word	0x239
 1457 050e 0000 0636 		.long	0x636
 1458 0512 1A        		.uleb128 0x1a
 1459 0513 0000 0000 		.long	.LASF81
 1460 0517 06        		.byte	0x6
 1461 0518 023B      		.word	0x23b
 1462 051a 0000 0030 		.long	0x30
 1463 051e 00        		.byte	0
 1464 051f 1A        		.uleb128 0x1a
 1465 0520 0000 0000 		.long	.LASF82
 1466 0524 06        		.byte	0x6
 1467 0525 0240      		.word	0x240
 1468 0527 0000 0716 		.long	0x716
 1469 052b 04        		.byte	0x4
 1470 052c 1A        		.uleb128 0x1a
 1471 052d 0000 0000 		.long	.LASF83
 1472 0531 06        		.byte	0x6
 1473 0532 0240      		.word	0x240
 1474 0534 0000 0716 		.long	0x716
 1475 0538 08        		.byte	0x8
 1476 0539 1A        		.uleb128 0x1a
 1477 053a 0000 0000 		.long	.LASF84
 1478 053e 06        		.byte	0x6


 1479 053f 0240      		.word	0x240
 1480 0541 0000 0716 		.long	0x716
 1481 0545 0C        		.byte	0xc
 1482 0546 1A        		.uleb128 0x1a
 1483 0547 0000 0000 		.long	.LASF85
 1484 054b 06        		.byte	0x6
 1485 054c 0242      		.word	0x242
 1486 054e 0000 0030 		.long	0x30
 1487 0552 10        		.byte	0x10
 1488 0553 1A        		.uleb128 0x1a
 1489 0554 0000 0000 		.long	.LASF86
 1490 0558 06        		.byte	0x6
 1491 0559 0243      		.word	0x243
 1492 055b 0000 08F8 		.long	0x8f8
 1493 055f 14        		.byte	0x14
 1494 0560 1A        		.uleb128 0x1a
 1495 0561 0000 0000 		.long	.LASF87
 1496 0565 06        		.byte	0x6
 1497 0566 0246      		.word	0x246
 1498 0568 0000 0030 		.long	0x30
 1499 056c 2E        		.byte	0x2e
 1500 056d 1A        		.uleb128 0x1a
 1501 056e 0000 0000 		.long	.LASF88
 1502 0572 06        		.byte	0x6
 1503 0573 0247      		.word	0x247
 1504 0575 0000 090D 		.long	0x90d
 1505 0579 32        		.byte	0x32
 1506 057a 1A        		.uleb128 0x1a
 1507 057b 0000 0000 		.long	.LASF89
 1508 057f 06        		.byte	0x6
 1509 0580 0249      		.word	0x249
 1510 0582 0000 0030 		.long	0x30
 1511 0586 36        		.byte	0x36
 1512 0587 1A        		.uleb128 0x1a
 1513 0588 0000 0000 		.long	.LASF90
 1514 058c 06        		.byte	0x6
 1515 058d 024B      		.word	0x24b
 1516 058f 0000 091E 		.long	0x91e
 1517 0593 3A        		.byte	0x3a
 1518 0594 1A        		.uleb128 0x1a
 1519 0595 0000 0000 		.long	.LASF91
 1520 0599 06        		.byte	0x6
 1521 059a 024E      		.word	0x24e
 1522 059c 0000 0251 		.long	0x251
 1523 05a0 3E        		.byte	0x3e
 1524 05a1 1A        		.uleb128 0x1a
 1525 05a2 0000 0000 		.long	.LASF92
 1526 05a6 06        		.byte	0x6
 1527 05a7 024F      		.word	0x24f
 1528 05a9 0000 0030 		.long	0x30
 1529 05ad 42        		.byte	0x42
 1530 05ae 1A        		.uleb128 0x1a
 1531 05af 0000 0000 		.long	.LASF93
 1532 05b3 06        		.byte	0x6
 1533 05b4 0250      		.word	0x250
 1534 05b6 0000 0251 		.long	0x251
 1535 05ba 46        		.byte	0x46


 1536 05bb 1A        		.uleb128 0x1a
 1537 05bc 0000 0000 		.long	.LASF94
 1538 05c0 06        		.byte	0x6
 1539 05c1 0251      		.word	0x251
 1540 05c3 0000 0924 		.long	0x924
 1541 05c7 4A        		.byte	0x4a
 1542 05c8 1A        		.uleb128 0x1a
 1543 05c9 0000 0000 		.long	.LASF95
 1544 05cd 06        		.byte	0x6
 1545 05ce 0254      		.word	0x254
 1546 05d0 0000 0030 		.long	0x30
 1547 05d4 4E        		.byte	0x4e
 1548 05d5 1A        		.uleb128 0x1a
 1549 05d6 0000 0000 		.long	.LASF96
 1550 05da 06        		.byte	0x6
 1551 05db 0255      		.word	0x255
 1552 05dd 0000 0636 		.long	0x636
 1553 05e1 52        		.byte	0x52
 1554 05e2 1A        		.uleb128 0x1a
 1555 05e3 0000 0000 		.long	.LASF97
 1556 05e7 06        		.byte	0x6
 1557 05e8 0278      		.word	0x278
 1558 05ea 0000 08D6 		.long	0x8d6
 1559 05ee 56        		.byte	0x56
 1560 05ef 1B        		.uleb128 0x1b
 1561 05f0 0000 0000 		.long	.LASF57
 1562 05f4 06        		.byte	0x6
 1563 05f5 027C      		.word	0x27c
 1564 05f7 0000 036E 		.long	0x36e
 1565 05fb 0146      		.word	0x146
 1566 05fd 1B        		.uleb128 0x1b
 1567 05fe 0000 0000 		.long	.LASF98
 1568 0602 06        		.byte	0x6
 1569 0603 027D      		.word	0x27d
 1570 0605 0000 0330 		.long	0x330
 1571 0609 014A      		.word	0x14a
 1572 060b 1B        		.uleb128 0x1b
 1573 060c 0000 0000 		.long	.LASF99
 1574 0610 06        		.byte	0x6
 1575 0611 0281      		.word	0x281
 1576 0613 0000 0935 		.long	0x935
 1577 0617 02DA      		.word	0x2da
 1578 0619 1B        		.uleb128 0x1b
 1579 061a 0000 0000 		.long	.LASF100
 1580 061e 06        		.byte	0x6
 1581 061f 0286      		.word	0x286
 1582 0621 0000 06DB 		.long	0x6db
 1583 0625 02DE      		.word	0x2de
 1584 0627 1B        		.uleb128 0x1b
 1585 0628 0000 0000 		.long	.LASF101
 1586 062c 06        		.byte	0x6
 1587 062d 0288      		.word	0x288
 1588 062f 0000 0941 		.long	0x941
 1589 0633 02EA      		.word	0x2ea
 1590 0635 00        		.byte	0
 1591 0636 08        		.uleb128 0x8
 1592 0637 04        		.byte	0x4


 1593 0638 0000 00FD 		.long	0xfd
 1594 063c 08        		.uleb128 0x8
 1595 063d 04        		.byte	0x4
 1596 063e 0000 04E0 		.long	0x4e0
 1597 0642 17        		.uleb128 0x17
 1598 0643 0000 016F 		.long	0x16f
 1599 0647 0000 0660 		.long	0x660
 1600 064b 18        		.uleb128 0x18
 1601 064c 0000 04FE 		.long	0x4fe
 1602 0650 18        		.uleb128 0x18
 1603 0651 0000 00B5 		.long	0xb5
 1604 0655 18        		.uleb128 0x18
 1605 0656 0000 0660 		.long	0x660
 1606 065a 18        		.uleb128 0x18
 1607 065b 0000 0030 		.long	0x30
 1608 065f 00        		.byte	0
 1609 0660 08        		.uleb128 0x8
 1610 0661 04        		.byte	0x4
 1611 0662 0000 0666 		.long	0x666
 1612 0666 1C        		.uleb128 0x1c
 1613 0667 0000 00FD 		.long	0xfd
 1614 066b 08        		.uleb128 0x8
 1615 066c 04        		.byte	0x4
 1616 066d 0000 0642 		.long	0x642
 1617 0671 17        		.uleb128 0x17
 1618 0672 0000 0164 		.long	0x164
 1619 0676 0000 068F 		.long	0x68f
 1620 067a 18        		.uleb128 0x18
 1621 067b 0000 04FE 		.long	0x4fe
 1622 067f 18        		.uleb128 0x18
 1623 0680 0000 00B5 		.long	0xb5
 1624 0684 18        		.uleb128 0x18
 1625 0685 0000 0164 		.long	0x164
 1626 0689 18        		.uleb128 0x18
 1627 068a 0000 0030 		.long	0x30
 1628 068e 00        		.byte	0
 1629 068f 08        		.uleb128 0x8
 1630 0690 04        		.byte	0x4
 1631 0691 0000 0671 		.long	0x671
 1632 0695 17        		.uleb128 0x17
 1633 0696 0000 0030 		.long	0x30
 1634 069a 0000 06A9 		.long	0x6a9
 1635 069e 18        		.uleb128 0x18
 1636 069f 0000 04FE 		.long	0x4fe
 1637 06a3 18        		.uleb128 0x18
 1638 06a4 0000 00B5 		.long	0xb5
 1639 06a8 00        		.byte	0
 1640 06a9 08        		.uleb128 0x8
 1641 06aa 04        		.byte	0x4
 1642 06ab 0000 0695 		.long	0x695
 1643 06af 0C        		.uleb128 0xc
 1644 06b0 0000 0116 		.long	0x116
 1645 06b4 0000 06BF 		.long	0x6bf
 1646 06b8 12        		.uleb128 0x12
 1647 06b9 0000 00F6 		.long	0xf6
 1648 06bd 02        		.byte	0x2
 1649 06be 00        		.byte	0


 1650 06bf 0C        		.uleb128 0xc
 1651 06c0 0000 0116 		.long	0x116
 1652 06c4 0000 06CF 		.long	0x6cf
 1653 06c8 12        		.uleb128 0x12
 1654 06c9 0000 00F6 		.long	0xf6
 1655 06cd 00        		.byte	0
 1656 06ce 00        		.byte	0
 1657 06cf 0F        		.uleb128 0xf
 1658 06d0 0000 0000 		.long	.LASF102
 1659 06d4 06        		.byte	0x6
 1660 06d5 011F      		.word	0x11f
 1661 06d7 0000 03B6 		.long	0x3b6
 1662 06db 1D        		.uleb128 0x1d
 1663 06dc 0000 0000 		.long	.LASF103
 1664 06e0 0C        		.byte	0xc
 1665 06e1 06        		.byte	0x6
 1666 06e2 0123      		.word	0x123
 1667 06e4 0000 0710 		.long	0x710
 1668 06e8 1A        		.uleb128 0x1a
 1669 06e9 0000 0000 		.long	.LASF37
 1670 06ed 06        		.byte	0x6
 1671 06ee 0125      		.word	0x125
 1672 06f0 0000 0710 		.long	0x710
 1673 06f4 00        		.byte	0
 1674 06f5 1A        		.uleb128 0x1a
 1675 06f6 0000 0000 		.long	.LASF104
 1676 06fa 06        		.byte	0x6
 1677 06fb 0126      		.word	0x126
 1678 06fd 0000 0030 		.long	0x30
 1679 0701 04        		.byte	0x4
 1680 0702 1A        		.uleb128 0x1a
 1681 0703 0000 0000 		.long	.LASF105
 1682 0707 06        		.byte	0x6
 1683 0708 0127      		.word	0x127
 1684 070a 0000 0716 		.long	0x716
 1685 070e 08        		.byte	0x8
 1686 070f 00        		.byte	0
 1687 0710 08        		.uleb128 0x8
 1688 0711 04        		.byte	0x4
 1689 0712 0000 06DB 		.long	0x6db
 1690 0716 08        		.uleb128 0x8
 1691 0717 04        		.byte	0x4
 1692 0718 0000 06CF 		.long	0x6cf
 1693 071c 1D        		.uleb128 0x1d
 1694 071d 0000 0000 		.long	.LASF106
 1695 0721 0E        		.byte	0xe
 1696 0722 06        		.byte	0x6
 1697 0723 013F      		.word	0x13f
 1698 0725 0000 0751 		.long	0x751
 1699 0729 1A        		.uleb128 0x1a
 1700 072a 0000 0000 		.long	.LASF107
 1701 072e 06        		.byte	0x6
 1702 072f 0140      		.word	0x140
 1703 0731 0000 0751 		.long	0x751
 1704 0735 00        		.byte	0
 1705 0736 1A        		.uleb128 0x1a
 1706 0737 0000 0000 		.long	.LASF108


 1707 073b 06        		.byte	0x6
 1708 073c 0141      		.word	0x141
 1709 073e 0000 0751 		.long	0x751
 1710 0742 06        		.byte	0x6
 1711 0743 1A        		.uleb128 0x1a
 1712 0744 0000 0000 		.long	.LASF109
 1713 0748 06        		.byte	0x6
 1714 0749 0142      		.word	0x142
 1715 074b 0000 0124 		.long	0x124
 1716 074f 0C        		.byte	0xc
 1717 0750 00        		.byte	0
 1718 0751 0C        		.uleb128 0xc
 1719 0752 0000 0124 		.long	0x124
 1720 0756 0000 0761 		.long	0x761
 1721 075a 12        		.uleb128 0x12
 1722 075b 0000 00F6 		.long	0xf6
 1723 075f 02        		.byte	0x2
 1724 0760 00        		.byte	0
 1725 0761 1E        		.uleb128 0x1e
 1726 0762 C8        		.byte	0xc8
 1727 0763 06        		.byte	0x6
 1728 0764 0259      		.word	0x259
 1729 0766 0000 0862 		.long	0x862
 1730 076a 1A        		.uleb128 0x1a
 1731 076b 0000 0000 		.long	.LASF110
 1732 076f 06        		.byte	0x6
 1733 0770 025B      		.word	0x25b
 1734 0772 0000 0186 		.long	0x186
 1735 0776 00        		.byte	0
 1736 0777 1A        		.uleb128 0x1a
 1737 0778 0000 0000 		.long	.LASF111
 1738 077c 06        		.byte	0x6
 1739 077d 025C      		.word	0x25c
 1740 077f 0000 0636 		.long	0x636
 1741 0783 04        		.byte	0x4
 1742 0784 1A        		.uleb128 0x1a
 1743 0785 0000 0000 		.long	.LASF112
 1744 0789 06        		.byte	0x6
 1745 078a 025D      		.word	0x25d
 1746 078c 0000 0862 		.long	0x862
 1747 0790 08        		.byte	0x8
 1748 0791 1A        		.uleb128 0x1a
 1749 0792 0000 0000 		.long	.LASF113
 1750 0796 06        		.byte	0x6
 1751 0797 025E      		.word	0x25e
 1752 0799 0000 0267 		.long	0x267
 1753 079d 22        		.byte	0x22
 1754 079e 1A        		.uleb128 0x1a
 1755 079f 0000 0000 		.long	.LASF114
 1756 07a3 06        		.byte	0x6
 1757 07a4 025F      		.word	0x25f
 1758 07a6 0000 0030 		.long	0x30
 1759 07aa 46        		.byte	0x46
 1760 07ab 1A        		.uleb128 0x1a
 1761 07ac 0000 0000 		.long	.LASF115
 1762 07b0 06        		.byte	0x6
 1763 07b1 0260      		.word	0x260


 1764 07b3 0000 0140 		.long	0x140
 1765 07b7 4A        		.byte	0x4a
 1766 07b8 1A        		.uleb128 0x1a
 1767 07b9 0000 0000 		.long	.LASF116
 1768 07bd 06        		.byte	0x6
 1769 07be 0261      		.word	0x261
 1770 07c0 0000 071C 		.long	0x71c
 1771 07c4 52        		.byte	0x52
 1772 07c5 1A        		.uleb128 0x1a
 1773 07c6 0000 0000 		.long	.LASF117
 1774 07ca 06        		.byte	0x6
 1775 07cb 0262      		.word	0x262
 1776 07cd 0000 01DD 		.long	0x1dd
 1777 07d1 60        		.byte	0x60
 1778 07d2 1A        		.uleb128 0x1a
 1779 07d3 0000 0000 		.long	.LASF118
 1780 07d7 06        		.byte	0x6
 1781 07d8 0263      		.word	0x263
 1782 07da 0000 01DD 		.long	0x1dd
 1783 07de 68        		.byte	0x68
 1784 07df 1A        		.uleb128 0x1a
 1785 07e0 0000 0000 		.long	.LASF119
 1786 07e4 06        		.byte	0x6
 1787 07e5 0264      		.word	0x264
 1788 07e7 0000 01DD 		.long	0x1dd
 1789 07eb 70        		.byte	0x70
 1790 07ec 1A        		.uleb128 0x1a
 1791 07ed 0000 0000 		.long	.LASF120
 1792 07f1 06        		.byte	0x6
 1793 07f2 0265      		.word	0x265
 1794 07f4 0000 0872 		.long	0x872
 1795 07f8 78        		.byte	0x78
 1796 07f9 1A        		.uleb128 0x1a
 1797 07fa 0000 0000 		.long	.LASF121
 1798 07fe 06        		.byte	0x6
 1799 07ff 0266      		.word	0x266
 1800 0801 0000 0882 		.long	0x882
 1801 0805 80        		.byte	0x80
 1802 0806 1A        		.uleb128 0x1a
 1803 0807 0000 0000 		.long	.LASF122
 1804 080b 06        		.byte	0x6
 1805 080c 0267      		.word	0x267
 1806 080e 0000 0030 		.long	0x30
 1807 0812 98        		.byte	0x98
 1808 0813 1A        		.uleb128 0x1a
 1809 0814 0000 0000 		.long	.LASF123
 1810 0818 06        		.byte	0x6
 1811 0819 0268      		.word	0x268
 1812 081b 0000 01DD 		.long	0x1dd
 1813 081f 9C        		.byte	0x9c
 1814 0820 1A        		.uleb128 0x1a
 1815 0821 0000 0000 		.long	.LASF124
 1816 0825 06        		.byte	0x6
 1817 0826 0269      		.word	0x269
 1818 0828 0000 01DD 		.long	0x1dd
 1819 082c A4        		.byte	0xa4
 1820 082d 1A        		.uleb128 0x1a


 1821 082e 0000 0000 		.long	.LASF125
 1822 0832 06        		.byte	0x6
 1823 0833 026A      		.word	0x26a
 1824 0835 0000 01DD 		.long	0x1dd
 1825 0839 AC        		.byte	0xac
 1826 083a 1A        		.uleb128 0x1a
 1827 083b 0000 0000 		.long	.LASF126
 1828 083f 06        		.byte	0x6
 1829 0840 026B      		.word	0x26b
 1830 0842 0000 01DD 		.long	0x1dd
 1831 0846 B4        		.byte	0xb4
 1832 0847 1A        		.uleb128 0x1a
 1833 0848 0000 0000 		.long	.LASF127
 1834 084c 06        		.byte	0x6
 1835 084d 026C      		.word	0x26c
 1836 084f 0000 01DD 		.long	0x1dd
 1837 0853 BC        		.byte	0xbc
 1838 0854 1A        		.uleb128 0x1a
 1839 0855 0000 0000 		.long	.LASF128
 1840 0859 06        		.byte	0x6
 1841 085a 026D      		.word	0x26d
 1842 085c 0000 0030 		.long	0x30
 1843 0860 C4        		.byte	0xc4
 1844 0861 00        		.byte	0
 1845 0862 0C        		.uleb128 0xc
 1846 0863 0000 00FD 		.long	0xfd
 1847 0867 0000 0872 		.long	0x872
 1848 086b 12        		.uleb128 0x12
 1849 086c 0000 00F6 		.long	0xf6
 1850 0870 19        		.byte	0x19
 1851 0871 00        		.byte	0
 1852 0872 0C        		.uleb128 0xc
 1853 0873 0000 00FD 		.long	0xfd
 1854 0877 0000 0882 		.long	0x882
 1855 087b 12        		.uleb128 0x12
 1856 087c 0000 00F6 		.long	0xf6
 1857 0880 07        		.byte	0x7
 1858 0881 00        		.byte	0
 1859 0882 0C        		.uleb128 0xc
 1860 0883 0000 00FD 		.long	0xfd
 1861 0887 0000 0892 		.long	0x892
 1862 088b 12        		.uleb128 0x12
 1863 088c 0000 00F6 		.long	0xf6
 1864 0890 17        		.byte	0x17
 1865 0891 00        		.byte	0
 1866 0892 1E        		.uleb128 0x1e
 1867 0893 F0        		.byte	0xf0
 1868 0894 06        		.byte	0x6
 1869 0895 0272      		.word	0x272
 1870 0897 0000 08B6 		.long	0x8b6
 1871 089b 1A        		.uleb128 0x1a
 1872 089c 0000 0000 		.long	.LASF129
 1873 08a0 06        		.byte	0x6
 1874 08a1 0275      		.word	0x275
 1875 08a3 0000 08B6 		.long	0x8b6
 1876 08a7 00        		.byte	0
 1877 08a8 1A        		.uleb128 0x1a


 1878 08a9 0000 0000 		.long	.LASF130
 1879 08ad 06        		.byte	0x6
 1880 08ae 0276      		.word	0x276
 1881 08b0 0000 08C6 		.long	0x8c6
 1882 08b4 78        		.byte	0x78
 1883 08b5 00        		.byte	0
 1884 08b6 0C        		.uleb128 0xc
 1885 08b7 0000 03B0 		.long	0x3b0
 1886 08bb 0000 08C6 		.long	0x8c6
 1887 08bf 12        		.uleb128 0x12
 1888 08c0 0000 00F6 		.long	0xf6
 1889 08c4 1D        		.byte	0x1d
 1890 08c5 00        		.byte	0
 1891 08c6 0C        		.uleb128 0xc
 1892 08c7 0000 0186 		.long	0x186
 1893 08cb 0000 08D6 		.long	0x8d6
 1894 08cf 12        		.uleb128 0x12
 1895 08d0 0000 00F6 		.long	0xf6
 1896 08d4 1D        		.byte	0x1d
 1897 08d5 00        		.byte	0
 1898 08d6 1F        		.uleb128 0x1f
 1899 08d7 F0        		.byte	0xf0
 1900 08d8 06        		.byte	0x6
 1901 08d9 0257      		.word	0x257
 1902 08db 0000 08F8 		.long	0x8f8
 1903 08df 20        		.uleb128 0x20
 1904 08e0 0000 0000 		.long	.LASF80
 1905 08e4 06        		.byte	0x6
 1906 08e5 026E      		.word	0x26e
 1907 08e7 0000 0761 		.long	0x761
 1908 08eb 20        		.uleb128 0x20
 1909 08ec 0000 0000 		.long	.LASF131
 1910 08f0 06        		.byte	0x6
 1911 08f1 0277      		.word	0x277
 1912 08f3 0000 0892 		.long	0x892
 1913 08f7 00        		.byte	0
 1914 08f8 0C        		.uleb128 0xc
 1915 08f9 0000 00FD 		.long	0xfd
 1916 08fd 0000 0908 		.long	0x908
 1917 0901 12        		.uleb128 0x12
 1918 0902 0000 00F6 		.long	0xf6
 1919 0906 18        		.byte	0x18
 1920 0907 00        		.byte	0
 1921 0908 21        		.uleb128 0x21
 1922 0909 0000 0000 		.long	.LASF165
 1923 090d 08        		.uleb128 0x8
 1924 090e 04        		.byte	0x4
 1925 090f 0000 0908 		.long	0x908
 1926 0913 22        		.uleb128 0x22
 1927 0914 0000 091E 		.long	0x91e
 1928 0918 18        		.uleb128 0x18
 1929 0919 0000 04FE 		.long	0x4fe
 1930 091d 00        		.byte	0
 1931 091e 08        		.uleb128 0x8
 1932 091f 04        		.byte	0x4
 1933 0920 0000 0913 		.long	0x913
 1934 0924 08        		.uleb128 0x8


 1935 0925 04        		.byte	0x4
 1936 0926 0000 0251 		.long	0x251
 1937 092a 22        		.uleb128 0x22
 1938 092b 0000 0935 		.long	0x935
 1939 092f 18        		.uleb128 0x18
 1940 0930 0000 0030 		.long	0x30
 1941 0934 00        		.byte	0
 1942 0935 08        		.uleb128 0x8
 1943 0936 04        		.byte	0x4
 1944 0937 0000 093B 		.long	0x93b
 1945 093b 08        		.uleb128 0x8
 1946 093c 04        		.byte	0x4
 1947 093d 0000 092A 		.long	0x92a
 1948 0941 0C        		.uleb128 0xc
 1949 0942 0000 06CF 		.long	0x6cf
 1950 0946 0000 0951 		.long	0x951
 1951 094a 12        		.uleb128 0x12
 1952 094b 0000 00F6 		.long	0xf6
 1953 094f 02        		.byte	0x2
 1954 0950 00        		.byte	0
 1955 0951 23        		.uleb128 0x23
 1956 0952 0000 0000 		.long	.LASF134
 1957 0956 01        		.byte	0x1
 1958 0957 4D        		.byte	0x4d
 1959 0958 0000 0025 		.long	0x25
 1960 095c 01        		.byte	0x1
 1961 095d 0000 0976 		.long	0x976
 1962 0961 24        		.uleb128 0x24
 1963 0962 7100      		.string	"q"
 1964 0964 01        		.byte	0x1
 1965 0965 4D        		.byte	0x4d
 1966 0966 0000 0976 		.long	0x976
 1967 096a 25        		.uleb128 0x25
 1968 096b 0000 0000 		.long	.LASF133
 1969 096f 01        		.byte	0x1
 1970 0970 4F        		.byte	0x4f
 1971 0971 0000 0025 		.long	0x25
 1972 0975 00        		.byte	0
 1973 0976 08        		.uleb128 0x8
 1974 0977 04        		.byte	0x4
 1975 0978 0000 0025 		.long	0x25
 1976 097c 26        		.uleb128 0x26
 1977 097d 0000 0000 		.long	.LASF139
 1978 0981 01        		.byte	0x1
 1979 0982 5E        		.byte	0x5e
 1980 0983 01        		.byte	0x1
 1981 0984 0000 09A7 		.long	0x9a7
 1982 0988 24        		.uleb128 0x24
 1983 0989 7100      		.string	"q"
 1984 098b 01        		.byte	0x1
 1985 098c 5E        		.byte	0x5e
 1986 098d 0000 0976 		.long	0x976
 1987 0991 27        		.uleb128 0x27
 1988 0992 0000 0000 		.long	.LASF132
 1989 0996 01        		.byte	0x1
 1990 0997 5E        		.byte	0x5e
 1991 0998 0000 0025 		.long	0x25


 1992 099c 28        		.uleb128 0x28
 1993 099d 6964 00   		.string	"id"
 1994 09a0 01        		.byte	0x1
 1995 09a1 60        		.byte	0x60
 1996 09a2 0000 0025 		.long	0x25
 1997 09a6 00        		.byte	0
 1998 09a7 23        		.uleb128 0x23
 1999 09a8 0000 0000 		.long	.LASF135
 2000 09ac 01        		.byte	0x1
 2001 09ad 2F        		.byte	0x2f
 2002 09ae 0000 00B5 		.long	0xb5
 2003 09b2 01        		.byte	0x1
 2004 09b3 0000 09EE 		.long	0x9ee
 2005 09b7 24        		.uleb128 0x24
 2006 09b8 6964 00   		.string	"id"
 2007 09bb 01        		.byte	0x1
 2008 09bc 2F        		.byte	0x2f
 2009 09bd 0000 0030 		.long	0x30
 2010 09c1 25        		.uleb128 0x25
 2011 09c2 0000 0000 		.long	.LASF136
 2012 09c6 01        		.byte	0x1
 2013 09c7 30        		.byte	0x30
 2014 09c8 0000 09EE 		.long	0x9ee
 2015 09cc 25        		.uleb128 0x25
 2016 09cd 0000 0000 		.long	.LASF137
 2017 09d1 01        		.byte	0x1
 2018 09d2 31        		.byte	0x31
 2019 09d3 0000 09F4 		.long	0x9f4
 2020 09d7 25        		.uleb128 0x25
 2021 09d8 0000 0000 		.long	.LASF138
 2022 09dc 01        		.byte	0x1
 2023 09dd 32        		.byte	0x32
 2024 09de 0000 00B5 		.long	0xb5
 2025 09e2 29        		.uleb128 0x29
 2026 09e3 28        		.uleb128 0x28
 2027 09e4 6900      		.string	"i"
 2028 09e6 01        		.byte	0x1
 2029 09e7 38        		.byte	0x38
 2030 09e8 0000 0030 		.long	0x30
 2031 09ec 00        		.byte	0
 2032 09ed 00        		.byte	0
 2033 09ee 08        		.uleb128 0x8
 2034 09ef 04        		.byte	0x4
 2035 09f0 0000 0030 		.long	0x30
 2036 09f4 08        		.uleb128 0x8
 2037 09f5 04        		.byte	0x4
 2038 09f6 0000 0124 		.long	0x124
 2039 09fa 2A        		.uleb128 0x2a
 2040 09fb 0000 0000 		.long	.LASF166
 2041 09ff 01        		.byte	0x1
 2042 0a00 56        		.byte	0x56
 2043 0a01 01        		.byte	0x1
 2044 0a02 26        		.uleb128 0x26
 2045 0a03 0000 0000 		.long	.LASF140
 2046 0a07 01        		.byte	0x1
 2047 0a08 7B        		.byte	0x7b
 2048 0a09 01        		.byte	0x1


 2049 0a0a 0000 0A30 		.long	0xa30
 2050 0a0e 27        		.uleb128 0x27
 2051 0a0f 0000 0000 		.long	.LASF141
 2052 0a13 01        		.byte	0x1
 2053 0a14 7B        		.byte	0x7b
 2054 0a15 0000 0030 		.long	0x30
 2055 0a19 25        		.uleb128 0x25
 2056 0a1a 0000 0000 		.long	.LASF142
 2057 0a1e 01        		.byte	0x1
 2058 0a1f 7D        		.byte	0x7d
 2059 0a20 0000 0976 		.long	0x976
 2060 0a24 25        		.uleb128 0x25
 2061 0a25 0000 0000 		.long	.LASF143
 2062 0a29 01        		.byte	0x1
 2063 0a2a 7F        		.byte	0x7f
 2064 0a2b 0000 0025 		.long	0x25
 2065 0a2f 00        		.byte	0
 2066 0a30 2B        		.uleb128 0x2b
 2067 0a31 0000 0000 		.long	.LASF144
 2068 0a35 01        		.byte	0x1
 2069 0a36 0E        		.byte	0xe
 2070 0a37 0000 0000 		.long	.LFB3
 2071 0a3b 0000 005A 		.long	.LFE3-.LFB3
 2072 0a3f 01        		.uleb128 0x1
 2073 0a40 9C        		.byte	0x9c
 2074 0a41 0000 0A78 		.long	0xa78
 2075 0a45 2C        		.uleb128 0x2c
 2076 0a46 0000 0000 		.long	.LBB27
 2077 0a4a 0000 002C 		.long	.LBE27-.LBB27
 2078 0a4e 0000 0A60 		.long	0xa60
 2079 0a52 2D        		.uleb128 0x2d
 2080 0a53 6900      		.string	"i"
 2081 0a55 01        		.byte	0x1
 2082 0a56 11        		.byte	0x11
 2083 0a57 0000 0030 		.long	0x30
 2084 0a5b 0000 0000 		.long	.LLST0
 2085 0a5f 00        		.byte	0
 2086 0a60 2E        		.uleb128 0x2e
 2087 0a61 0000 0000 		.long	.LBB28
 2088 0a65 0000 001E 		.long	.LBE28-.LBB28
 2089 0a69 2D        		.uleb128 0x2d
 2090 0a6a 6900      		.string	"i"
 2091 0a6c 01        		.byte	0x1
 2092 0a6d 15        		.byte	0x15
 2093 0a6e 0000 0030 		.long	0x30
 2094 0a72 0000 0000 		.long	.LLST1
 2095 0a76 00        		.byte	0
 2096 0a77 00        		.byte	0
 2097 0a78 2B        		.uleb128 0x2b
 2098 0a79 0000 0000 		.long	.LASF145
 2099 0a7d 01        		.byte	0x1
 2100 0a7e 1F        		.byte	0x1f
 2101 0a7f 0000 0000 		.long	.LFB4
 2102 0a83 0000 0130 		.long	.LFE4-.LFB4
 2103 0a87 01        		.uleb128 0x1
 2104 0a88 9C        		.byte	0x9c
 2105 0a89 0000 0B12 		.long	0xb12


 2106 0a8d 2F        		.uleb128 0x2f
 2107 0a8e 7000      		.string	"p"
 2108 0a90 01        		.byte	0x1
 2109 0a91 1F        		.byte	0x1f
 2110 0a92 0000 00B5 		.long	0xb5
 2111 0a96 02        		.uleb128 0x2
 2112 0a97 91        		.byte	0x91
 2113 0a98 00        		.sleb128 0
 2114 0a99 2D        		.uleb128 0x2d
 2115 0a9a 6900      		.string	"i"
 2116 0a9c 01        		.byte	0x1
 2117 0a9d 20        		.byte	0x20
 2118 0a9e 0000 0030 		.long	0x30
 2119 0aa2 0000 0000 		.long	.LLST2
 2120 0aa6 30        		.uleb128 0x30
 2121 0aa7 0000 09A7 		.long	0x9a7
 2122 0aab 0000 0000 		.long	.LBB29
 2123 0aaf 0000 0000 		.long	.Ldebug_ranges0+0
 2124 0ab3 01        		.byte	0x1
 2125 0ab4 2A        		.byte	0x2a
 2126 0ab5 0000 0AE0 		.long	0xae0
 2127 0ab9 31        		.uleb128 0x31
 2128 0aba 0000 09B7 		.long	0x9b7
 2129 0abe 0000 0000 		.long	.LLST3
 2130 0ac2 32        		.uleb128 0x32
 2131 0ac3 0000 0000 		.long	.Ldebug_ranges0+0
 2132 0ac7 33        		.uleb128 0x33
 2133 0ac8 0000 09C1 		.long	0x9c1
 2134 0acc 0000 0000 		.long	.LLST4
 2135 0ad0 33        		.uleb128 0x33
 2136 0ad1 0000 09CC 		.long	0x9cc
 2137 0ad5 0000 0000 		.long	.LLST5
 2138 0ad9 34        		.uleb128 0x34
 2139 0ada 0000 09D7 		.long	0x9d7
 2140 0ade 00        		.byte	0
 2141 0adf 00        		.byte	0
 2142 0ae0 35        		.uleb128 0x35
 2143 0ae1 0000 097C 		.long	0x97c
 2144 0ae5 0000 0000 		.long	.LBB32
 2145 0ae9 0000 0000 		.long	.Ldebug_ranges0+0x18
 2146 0aed 01        		.byte	0x1
 2147 0aee 2B        		.byte	0x2b
 2148 0aef 31        		.uleb128 0x31
 2149 0af0 0000 0991 		.long	0x991
 2150 0af4 0000 0000 		.long	.LLST6
 2151 0af8 31        		.uleb128 0x31
 2152 0af9 0000 0988 		.long	0x988
 2153 0afd 0000 0000 		.long	.LLST7
 2154 0b01 32        		.uleb128 0x32
 2155 0b02 0000 0000 		.long	.Ldebug_ranges0+0x18
 2156 0b06 33        		.uleb128 0x33
 2157 0b07 0000 099C 		.long	0x99c
 2158 0b0b 0000 0000 		.long	.LLST8
 2159 0b0f 00        		.byte	0
 2160 0b10 00        		.byte	0
 2161 0b11 00        		.byte	0
 2162 0b12 36        		.uleb128 0x36


 2163 0b13 0000 09A7 		.long	0x9a7
 2164 0b17 0000 0000 		.long	.LFB5
 2165 0b1b 0000 0046 		.long	.LFE5-.LFB5
 2166 0b1f 01        		.uleb128 0x1
 2167 0b20 9C        		.byte	0x9c
 2168 0b21 0000 0B49 		.long	0xb49
 2169 0b25 37        		.uleb128 0x37
 2170 0b26 0000 09B7 		.long	0x9b7
 2171 0b2a 02        		.uleb128 0x2
 2172 0b2b 91        		.byte	0x91
 2173 0b2c 00        		.sleb128 0
 2174 0b2d 33        		.uleb128 0x33
 2175 0b2e 0000 09C1 		.long	0x9c1
 2176 0b32 0000 0000 		.long	.LLST9
 2177 0b36 38        		.uleb128 0x38
 2178 0b37 0000 09CC 		.long	0x9cc
 2179 0b3b 03        		.uleb128 0x3
 2180 0b3c 78        		.byte	0x78
 2181 0b3d 7A        		.sleb128 -6
 2182 0b3e 9F        		.byte	0x9f
 2183 0b3f 33        		.uleb128 0x33
 2184 0b40 0000 09D7 		.long	0x9d7
 2185 0b44 0000 0000 		.long	.LLST10
 2186 0b48 00        		.byte	0
 2187 0b49 2B        		.uleb128 0x2b
 2188 0b4a 0000 0000 		.long	.LASF146
 2189 0b4e 01        		.byte	0x1
 2190 0b4f 42        		.byte	0x42
 2191 0b50 0000 0000 		.long	.LFB6
 2192 0b54 0000 0032 		.long	.LFE6-.LFB6
 2193 0b58 01        		.uleb128 0x1
 2194 0b59 9C        		.byte	0x9c
 2195 0b5a 0000 0BAC 		.long	0xbac
 2196 0b5e 39        		.uleb128 0x39
 2197 0b5f 6900      		.string	"i"
 2198 0b61 01        		.byte	0x1
 2199 0b62 44        		.byte	0x44
 2200 0b63 0000 0030 		.long	0x30
 2201 0b67 01        		.uleb128 0x1
 2202 0b68 51        		.byte	0x51
 2203 0b69 3A        		.uleb128 0x3a
 2204 0b6a 0000 0951 		.long	0x951
 2205 0b6e 0000 0000 		.long	.LBB39
 2206 0b72 0000 0020 		.long	.LBE39-.LBB39
 2207 0b76 01        		.byte	0x1
 2208 0b77 45        		.byte	0x45
 2209 0b78 0000 0B99 		.long	0xb99
 2210 0b7c 31        		.uleb128 0x31
 2211 0b7d 0000 0961 		.long	0x961
 2212 0b81 0000 0000 		.long	.LLST11
 2213 0b85 2E        		.uleb128 0x2e
 2214 0b86 0000 0000 		.long	.LBB40
 2215 0b8a 0000 0020 		.long	.LBE40-.LBB40
 2216 0b8e 33        		.uleb128 0x33
 2217 0b8f 0000 096A 		.long	0x96a
 2218 0b93 0000 0000 		.long	.LLST12
 2219 0b97 00        		.byte	0


 2220 0b98 00        		.byte	0
 2221 0b99 3B        		.uleb128 0x3b
 2222 0b9a 0000 0000 		.long	.LVL43
 2223 0b9e 0000 0EFF 		.long	0xeff
 2224 0ba2 3C        		.uleb128 0x3c
 2225 0ba3 0000 0000 		.long	.LVL44
 2226 0ba7 0000 0F0A 		.long	0xf0a
 2227 0bab 00        		.byte	0
 2228 0bac 36        		.uleb128 0x36
 2229 0bad 0000 0951 		.long	0x951
 2230 0bb1 0000 0000 		.long	.LFB7
 2231 0bb5 0000 001E 		.long	.LFE7-.LFB7
 2232 0bb9 01        		.uleb128 0x1
 2233 0bba 9C        		.byte	0x9c
 2234 0bbb 0000 0BCF 		.long	0xbcf
 2235 0bbf 37        		.uleb128 0x37
 2236 0bc0 0000 0961 		.long	0x961
 2237 0bc4 02        		.uleb128 0x2
 2238 0bc5 91        		.byte	0x91
 2239 0bc6 00        		.sleb128 0
 2240 0bc7 38        		.uleb128 0x38
 2241 0bc8 0000 096A 		.long	0x96a
 2242 0bcc 01        		.uleb128 0x1
 2243 0bcd 50        		.byte	0x50
 2244 0bce 00        		.byte	0
 2245 0bcf 36        		.uleb128 0x36
 2246 0bd0 0000 09FA 		.long	0x9fa
 2247 0bd4 0000 0000 		.long	.LFB8
 2248 0bd8 0000 002C 		.long	.LFE8-.LFB8
 2249 0bdc 01        		.uleb128 0x1
 2250 0bdd 9C        		.byte	0x9c
 2251 0bde 0000 0C0F 		.long	0xc0f
 2252 0be2 3D        		.uleb128 0x3d
 2253 0be3 0000 0951 		.long	0x951
 2254 0be7 0000 0000 		.long	.LBB41
 2255 0beb 0000 0020 		.long	.LBE41-.LBB41
 2256 0bef 01        		.byte	0x1
 2257 0bf0 59        		.byte	0x59
 2258 0bf1 31        		.uleb128 0x31
 2259 0bf2 0000 0961 		.long	0x961
 2260 0bf6 0000 0000 		.long	.LLST13
 2261 0bfa 2E        		.uleb128 0x2e
 2262 0bfb 0000 0000 		.long	.LBB42
 2263 0bff 0000 0020 		.long	.LBE42-.LBB42
 2264 0c03 33        		.uleb128 0x33
 2265 0c04 0000 096A 		.long	0x96a
 2266 0c08 0000 0000 		.long	.LLST14
 2267 0c0c 00        		.byte	0
 2268 0c0d 00        		.byte	0
 2269 0c0e 00        		.byte	0
 2270 0c0f 36        		.uleb128 0x36
 2271 0c10 0000 097C 		.long	0x97c
 2272 0c14 0000 0000 		.long	.LFB9
 2273 0c18 0000 003C 		.long	.LFE9-.LFB9
 2274 0c1c 01        		.uleb128 0x1
 2275 0c1d 9C        		.byte	0x9c
 2276 0c1e 0000 0C3D 		.long	0xc3d


 2277 0c22 37        		.uleb128 0x37
 2278 0c23 0000 0988 		.long	0x988
 2279 0c27 02        		.uleb128 0x2
 2280 0c28 91        		.byte	0x91
 2281 0c29 00        		.sleb128 0
 2282 0c2a 31        		.uleb128 0x31
 2283 0c2b 0000 0991 		.long	0x991
 2284 0c2f 0000 0000 		.long	.LLST15
 2285 0c33 33        		.uleb128 0x33
 2286 0c34 0000 099C 		.long	0x99c
 2287 0c38 0000 0000 		.long	.LLST16
 2288 0c3c 00        		.byte	0
 2289 0c3d 2B        		.uleb128 0x2b
 2290 0c3e 0000 0000 		.long	.LASF147
 2291 0c42 01        		.byte	0x1
 2292 0c43 71        		.byte	0x71
 2293 0c44 0000 0000 		.long	.LFB10
 2294 0c48 0000 0090 		.long	.LFE10-.LFB10
 2295 0c4c 01        		.uleb128 0x1
 2296 0c4d 9C        		.byte	0x9c
 2297 0c4e 0000 0CEF 		.long	0xcef
 2298 0c52 3E        		.uleb128 0x3e
 2299 0c53 0000 0000 		.long	.LASF141
 2300 0c57 01        		.byte	0x1
 2301 0c58 71        		.byte	0x71
 2302 0c59 0000 0030 		.long	0x30
 2303 0c5d 0000 0000 		.long	.LLST17
 2304 0c61 3F        		.uleb128 0x3f
 2305 0c62 0000 0000 		.long	.LASF148
 2306 0c66 01        		.byte	0x1
 2307 0c67 72        		.byte	0x72
 2308 0c68 0000 0976 		.long	0x976
 2309 0c6c 0000 0000 		.long	.LLST18
 2310 0c70 30        		.uleb128 0x30
 2311 0c71 0000 097C 		.long	0x97c
 2312 0c75 0000 0000 		.long	.LBB43
 2313 0c79 0000 0000 		.long	.Ldebug_ranges0+0x38
 2314 0c7d 01        		.byte	0x1
 2315 0c7e 74        		.byte	0x74
 2316 0c7f 0000 0CA5 		.long	0xca5
 2317 0c83 31        		.uleb128 0x31
 2318 0c84 0000 0991 		.long	0x991
 2319 0c88 0000 0000 		.long	.LLST19
 2320 0c8c 31        		.uleb128 0x31
 2321 0c8d 0000 0988 		.long	0x988
 2322 0c91 0000 0000 		.long	.LLST20
 2323 0c95 32        		.uleb128 0x32
 2324 0c96 0000 0000 		.long	.Ldebug_ranges0+0x38
 2325 0c9a 33        		.uleb128 0x33
 2326 0c9b 0000 099C 		.long	0x99c
 2327 0c9f 0000 0000 		.long	.LLST21
 2328 0ca3 00        		.byte	0
 2329 0ca4 00        		.byte	0
 2330 0ca5 3A        		.uleb128 0x3a
 2331 0ca6 0000 09FA 		.long	0x9fa
 2332 0caa 0000 0000 		.long	.LBB46
 2333 0cae 0000 002A 		.long	.LBE46-.LBB46


 2334 0cb2 01        		.byte	0x1
 2335 0cb3 76        		.byte	0x76
 2336 0cb4 0000 0CE5 		.long	0xce5
 2337 0cb8 3D        		.uleb128 0x3d
 2338 0cb9 0000 0951 		.long	0x951
 2339 0cbd 0000 0000 		.long	.LBB48
 2340 0cc1 0000 0020 		.long	.LBE48-.LBB48
 2341 0cc5 01        		.byte	0x1
 2342 0cc6 59        		.byte	0x59
 2343 0cc7 31        		.uleb128 0x31
 2344 0cc8 0000 0961 		.long	0x961
 2345 0ccc 0000 0000 		.long	.LLST22
 2346 0cd0 2E        		.uleb128 0x2e
 2347 0cd1 0000 0000 		.long	.LBB49
 2348 0cd5 0000 0020 		.long	.LBE49-.LBB49
 2349 0cd9 33        		.uleb128 0x33
 2350 0cda 0000 096A 		.long	0x96a
 2351 0cde 0000 0000 		.long	.LLST23
 2352 0ce2 00        		.byte	0
 2353 0ce3 00        		.byte	0
 2354 0ce4 00        		.byte	0
 2355 0ce5 3C        		.uleb128 0x3c
 2356 0ce6 0000 0000 		.long	.LVL71
 2357 0cea 0000 0F15 		.long	0xf15
 2358 0cee 00        		.byte	0
 2359 0cef 36        		.uleb128 0x36
 2360 0cf0 0000 0A02 		.long	0xa02
 2361 0cf4 0000 0000 		.long	.LFB11
 2362 0cf8 0000 0072 		.long	.LFE11-.LFB11
 2363 0cfc 01        		.uleb128 0x1
 2364 0cfd 9C        		.byte	0x9c
 2365 0cfe 0000 0D78 		.long	0xd78
 2366 0d02 37        		.uleb128 0x37
 2367 0d03 0000 0A0E 		.long	0xa0e
 2368 0d07 02        		.uleb128 0x2
 2369 0d08 91        		.byte	0x91
 2370 0d09 00        		.sleb128 0
 2371 0d0a 33        		.uleb128 0x33
 2372 0d0b 0000 0A19 		.long	0xa19
 2373 0d0f 0000 0000 		.long	.LLST24
 2374 0d13 38        		.uleb128 0x38
 2375 0d14 0000 0A24 		.long	0xa24
 2376 0d18 01        		.uleb128 0x1
 2377 0d19 59        		.byte	0x59
 2378 0d1a 3A        		.uleb128 0x3a
 2379 0d1b 0000 0951 		.long	0x951
 2380 0d1f 0000 0000 		.long	.LBB51
 2381 0d23 0000 0028 		.long	.LBE51-.LBB51
 2382 0d27 01        		.byte	0x1
 2383 0d28 7F        		.byte	0x7f
 2384 0d29 0000 0D4A 		.long	0xd4a
 2385 0d2d 31        		.uleb128 0x31
 2386 0d2e 0000 0961 		.long	0x961
 2387 0d32 0000 0000 		.long	.LLST25
 2388 0d36 2E        		.uleb128 0x2e
 2389 0d37 0000 0000 		.long	.LBB52
 2390 0d3b 0000 0028 		.long	.LBE52-.LBB52


 2391 0d3f 33        		.uleb128 0x33
 2392 0d40 0000 096A 		.long	0x96a
 2393 0d44 0000 0000 		.long	.LLST26
 2394 0d48 00        		.byte	0
 2395 0d49 00        		.byte	0
 2396 0d4a 35        		.uleb128 0x35
 2397 0d4b 0000 097C 		.long	0x97c
 2398 0d4f 0000 0000 		.long	.LBB53
 2399 0d53 0000 0000 		.long	.Ldebug_ranges0+0x50
 2400 0d57 01        		.byte	0x1
 2401 0d58 81        		.byte	0x81
 2402 0d59 40        		.uleb128 0x40
 2403 0d5a 0000 0991 		.long	0x991
 2404 0d5e 31        		.uleb128 0x31
 2405 0d5f 0000 0988 		.long	0x988
 2406 0d63 0000 0000 		.long	.LLST27
 2407 0d67 32        		.uleb128 0x32
 2408 0d68 0000 0000 		.long	.Ldebug_ranges0+0x50
 2409 0d6c 33        		.uleb128 0x33
 2410 0d6d 0000 099C 		.long	0x99c
 2411 0d71 0000 0000 		.long	.LLST28
 2412 0d75 00        		.byte	0
 2413 0d76 00        		.byte	0
 2414 0d77 00        		.byte	0
 2415 0d78 2B        		.uleb128 0x2b
 2416 0d79 0000 0000 		.long	.LASF149
 2417 0d7d 01        		.byte	0x1
 2418 0d7e 84        		.byte	0x84
 2419 0d7f 0000 0000 		.long	.LFB12
 2420 0d83 0000 0026 		.long	.LFE12-.LFB12
 2421 0d87 01        		.uleb128 0x1
 2422 0d88 9C        		.byte	0x9c
 2423 0d89 0000 0DA5 		.long	0xda5
 2424 0d8d 41        		.uleb128 0x41
 2425 0d8e 0000 0000 		.long	.LASF141
 2426 0d92 01        		.byte	0x1
 2427 0d93 84        		.byte	0x84
 2428 0d94 0000 0030 		.long	0x30
 2429 0d98 02        		.uleb128 0x2
 2430 0d99 91        		.byte	0x91
 2431 0d9a 00        		.sleb128 0
 2432 0d9b 3C        		.uleb128 0x3c
 2433 0d9c 0000 0000 		.long	.LVL85
 2434 0da0 0000 0C3D 		.long	0xc3d
 2435 0da4 00        		.byte	0
 2436 0da5 2B        		.uleb128 0x2b
 2437 0da6 0000 0000 		.long	.LASF150
 2438 0daa 01        		.byte	0x1
 2439 0dab 8E        		.byte	0x8e
 2440 0dac 0000 0000 		.long	.LFB13
 2441 0db0 0000 008C 		.long	.LFE13-.LFB13
 2442 0db4 01        		.uleb128 0x1
 2443 0db5 9C        		.byte	0x9c
 2444 0db6 0000 0E4C 		.long	0xe4c
 2445 0dba 41        		.uleb128 0x41
 2446 0dbb 0000 0000 		.long	.LASF141
 2447 0dbf 01        		.byte	0x1


 2448 0dc0 8E        		.byte	0x8e
 2449 0dc1 0000 0030 		.long	0x30
 2450 0dc5 02        		.uleb128 0x2
 2451 0dc6 91        		.byte	0x91
 2452 0dc7 00        		.sleb128 0
 2453 0dc8 35        		.uleb128 0x35
 2454 0dc9 0000 0A02 		.long	0xa02
 2455 0dcd 0000 0000 		.long	.LBB57
 2456 0dd1 0000 0000 		.long	.Ldebug_ranges0+0x68
 2457 0dd5 01        		.byte	0x1
 2458 0dd6 93        		.byte	0x93
 2459 0dd7 40        		.uleb128 0x40
 2460 0dd8 0000 0A0E 		.long	0xa0e
 2461 0ddc 32        		.uleb128 0x32
 2462 0ddd 0000 0000 		.long	.Ldebug_ranges0+0x68
 2463 0de1 34        		.uleb128 0x34
 2464 0de2 0000 0A19 		.long	0xa19
 2465 0de6 38        		.uleb128 0x38
 2466 0de7 0000 0A24 		.long	0xa24
 2467 0deb 01        		.uleb128 0x1
 2468 0dec 52        		.byte	0x52
 2469 0ded 3A        		.uleb128 0x3a
 2470 0dee 0000 0951 		.long	0x951
 2471 0df2 0000 0000 		.long	.LBB59
 2472 0df6 0000 0022 		.long	.LBE59-.LBB59
 2473 0dfa 01        		.byte	0x1
 2474 0dfb 7F        		.byte	0x7f
 2475 0dfc 0000 0E19 		.long	0xe19
 2476 0e00 40        		.uleb128 0x40
 2477 0e01 0000 0961 		.long	0x961
 2478 0e05 2E        		.uleb128 0x2e
 2479 0e06 0000 0000 		.long	.LBB60
 2480 0e0a 0000 0022 		.long	.LBE60-.LBB60
 2481 0e0e 33        		.uleb128 0x33
 2482 0e0f 0000 096A 		.long	0x96a
 2483 0e13 0000 0000 		.long	.LLST29
 2484 0e17 00        		.byte	0
 2485 0e18 00        		.byte	0
 2486 0e19 35        		.uleb128 0x35
 2487 0e1a 0000 097C 		.long	0x97c
 2488 0e1e 0000 0000 		.long	.LBB61
 2489 0e22 0000 0000 		.long	.Ldebug_ranges0+0x80
 2490 0e26 01        		.byte	0x1
 2491 0e27 81        		.byte	0x81
 2492 0e28 40        		.uleb128 0x40
 2493 0e29 0000 0991 		.long	0x991
 2494 0e2d 37        		.uleb128 0x37
 2495 0e2e 0000 0988 		.long	0x988
 2496 0e32 06        		.uleb128 0x6
 2497 0e33 03        		.byte	0x3
 2498 0e34 0000 0000 		.long	ready
 2499 0e38 9F        		.byte	0x9f
 2500 0e39 32        		.uleb128 0x32
 2501 0e3a 0000 0000 		.long	.Ldebug_ranges0+0x80
 2502 0e3e 33        		.uleb128 0x33
 2503 0e3f 0000 099C 		.long	0x99c
 2504 0e43 0000 0000 		.long	.LLST30


 2505 0e47 00        		.byte	0
 2506 0e48 00        		.byte	0
 2507 0e49 00        		.byte	0
 2508 0e4a 00        		.byte	0
 2509 0e4b 00        		.byte	0
 2510 0e4c 42        		.uleb128 0x42
 2511 0e4d 0000 0000 		.long	.LASF151
 2512 0e51 02        		.byte	0x2
 2513 0e52 26        		.byte	0x26
 2514 0e53 0000 0025 		.long	0x25
 2515 0e57 05        		.uleb128 0x5
 2516 0e58 03        		.byte	0x3
 2517 0e59 0000 0000 		.long	curr_task
 2518 0e5d 42        		.uleb128 0x42
 2519 0e5e 0000 0000 		.long	.LASF152
 2520 0e62 02        		.byte	0x2
 2521 0e63 27        		.byte	0x27
 2522 0e64 0000 0025 		.long	0x25
 2523 0e68 05        		.uleb128 0x5
 2524 0e69 03        		.byte	0x3
 2525 0e6a 0000 0000 		.long	new_task
 2526 0e6e 42        		.uleb128 0x42
 2527 0e6f 0000 0000 		.long	.LASF153
 2528 0e73 02        		.byte	0x2
 2529 0e74 28        		.byte	0x28
 2530 0e75 0000 0025 		.long	0x25
 2531 0e79 05        		.uleb128 0x5
 2532 0e7a 03        		.byte	0x3
 2533 0e7b 0000 0000 		.long	next_task
 2534 0e7f 42        		.uleb128 0x42
 2535 0e80 0000 0000 		.long	.LASF154
 2536 0e84 02        		.byte	0x2
 2537 0e85 2A        		.byte	0x2a
 2538 0e86 0000 0025 		.long	0x25
 2539 0e8a 05        		.uleb128 0x5
 2540 0e8b 03        		.byte	0x3
 2541 0e8c 0000 0000 		.long	ready
 2542 0e90 0C        		.uleb128 0xc
 2543 0e91 0000 0058 		.long	0x58
 2544 0e95 0000 0EA0 		.long	0xea0
 2545 0e99 12        		.uleb128 0x12
 2546 0e9a 0000 00F6 		.long	0xf6
 2547 0e9e 02        		.byte	0x2
 2548 0e9f 00        		.byte	0
 2549 0ea0 42        		.uleb128 0x42
 2550 0ea1 0000 0000 		.long	.LASF155
 2551 0ea5 02        		.byte	0x2
 2552 0ea6 2C        		.byte	0x2c
 2553 0ea7 0000 0E90 		.long	0xe90
 2554 0eab 05        		.uleb128 0x5
 2555 0eac 03        		.byte	0x3
 2556 0ead 0000 0000 		.long	semaphore
 2557 0eb1 0C        		.uleb128 0xc
 2558 0eb2 0000 00B7 		.long	0xb7
 2559 0eb6 0000 0EC1 		.long	0xec1
 2560 0eba 12        		.uleb128 0x12
 2561 0ebb 0000 00F6 		.long	0xf6


 2562 0ebf 07        		.byte	0x7
 2563 0ec0 00        		.byte	0
 2564 0ec1 42        		.uleb128 0x42
 2565 0ec2 0000 0000 		.long	.LASF156
 2566 0ec6 02        		.byte	0x2
 2567 0ec7 2D        		.byte	0x2d
 2568 0ec8 0000 0EB1 		.long	0xeb1
 2569 0ecc 05        		.uleb128 0x5
 2570 0ecd 03        		.byte	0x3
 2571 0ece 0000 0000 		.long	task_tab
 2572 0ed2 0C        		.uleb128 0xc
 2573 0ed3 0000 0104 		.long	0x104
 2574 0ed7 0000 0EE2 		.long	0xee2
 2575 0edb 12        		.uleb128 0x12
 2576 0edc 0000 00F6 		.long	0xf6
 2577 0ee0 06        		.byte	0x6
 2578 0ee1 00        		.byte	0
 2579 0ee2 42        		.uleb128 0x42
 2580 0ee3 0000 0000 		.long	.LASF157
 2581 0ee7 02        		.byte	0x2
 2582 0ee8 2F        		.byte	0x2f
 2583 0ee9 0000 0ED2 		.long	0xed2
 2584 0eed 05        		.uleb128 0x5
 2585 0eee 03        		.byte	0x3
 2586 0eef 0000 0000 		.long	stacks
 2587 0ef3 43        		.uleb128 0x43
 2588 0ef4 0000 0000 		.long	.LASF158
 2589 0ef8 06        		.byte	0x6
 2590 0ef9 0307      		.word	0x307
 2591 0efb 0000 04FE 		.long	0x4fe
 2592 0eff 44        		.uleb128 0x44
 2593 0f00 0000 0000 		.long	.LASF159
 2594 0f04 0000 0000 		.long	.LASF159
 2595 0f08 02        		.byte	0x2
 2596 0f09 45        		.byte	0x45
 2597 0f0a 44        		.uleb128 0x44
 2598 0f0b 0000 0000 		.long	.LASF160
 2599 0f0f 0000 0000 		.long	.LASF160
 2600 0f13 02        		.byte	0x2
 2601 0f14 3F        		.byte	0x3f
 2602 0f15 44        		.uleb128 0x44
 2603 0f16 0000 0000 		.long	.LASF161
 2604 0f1a 0000 0000 		.long	.LASF161
 2605 0f1e 02        		.byte	0x2
 2606 0f1f 43        		.byte	0x43
 2607 0f20 00        		.byte	0
 2608               		.section	.debug_abbrev,"",@progbits
 2609               	.Ldebug_abbrev0:
 2610 0000 01        		.uleb128 0x1
 2611 0001 11        		.uleb128 0x11
 2612 0002 01        		.byte	0x1
 2613 0003 25        		.uleb128 0x25
 2614 0004 0E        		.uleb128 0xe
 2615 0005 13        		.uleb128 0x13
 2616 0006 0B        		.uleb128 0xb
 2617 0007 03        		.uleb128 0x3
 2618 0008 0E        		.uleb128 0xe


 2619 0009 1B        		.uleb128 0x1b
 2620 000a 0E        		.uleb128 0xe
 2621 000b 11        		.uleb128 0x11
 2622 000c 01        		.uleb128 0x1
 2623 000d 12        		.uleb128 0x12
 2624 000e 06        		.uleb128 0x6
 2625 000f 10        		.uleb128 0x10
 2626 0010 17        		.uleb128 0x17
 2627 0011 00        		.byte	0
 2628 0012 00        		.byte	0
 2629 0013 02        		.uleb128 0x2
 2630 0014 16        		.uleb128 0x16
 2631 0015 00        		.byte	0
 2632 0016 03        		.uleb128 0x3
 2633 0017 0E        		.uleb128 0xe
 2634 0018 3A        		.uleb128 0x3a
 2635 0019 0B        		.uleb128 0xb
 2636 001a 3B        		.uleb128 0x3b
 2637 001b 0B        		.uleb128 0xb
 2638 001c 49        		.uleb128 0x49
 2639 001d 13        		.uleb128 0x13
 2640 001e 00        		.byte	0
 2641 001f 00        		.byte	0
 2642 0020 03        		.uleb128 0x3
 2643 0021 24        		.uleb128 0x24
 2644 0022 00        		.byte	0
 2645 0023 0B        		.uleb128 0xb
 2646 0024 0B        		.uleb128 0xb
 2647 0025 3E        		.uleb128 0x3e
 2648 0026 0B        		.uleb128 0xb
 2649 0027 03        		.uleb128 0x3
 2650 0028 08        		.uleb128 0x8
 2651 0029 00        		.byte	0
 2652 002a 00        		.byte	0
 2653 002b 04        		.uleb128 0x4
 2654 002c 13        		.uleb128 0x13
 2655 002d 01        		.byte	0x1
 2656 002e 0B        		.uleb128 0xb
 2657 002f 0B        		.uleb128 0xb
 2658 0030 3A        		.uleb128 0x3a
 2659 0031 0B        		.uleb128 0xb
 2660 0032 3B        		.uleb128 0x3b
 2661 0033 0B        		.uleb128 0xb
 2662 0034 01        		.uleb128 0x1
 2663 0035 13        		.uleb128 0x13
 2664 0036 00        		.byte	0
 2665 0037 00        		.byte	0
 2666 0038 05        		.uleb128 0x5
 2667 0039 0D        		.uleb128 0xd
 2668 003a 00        		.byte	0
 2669 003b 03        		.uleb128 0x3
 2670 003c 0E        		.uleb128 0xe
 2671 003d 3A        		.uleb128 0x3a
 2672 003e 0B        		.uleb128 0xb
 2673 003f 3B        		.uleb128 0x3b
 2674 0040 0B        		.uleb128 0xb
 2675 0041 49        		.uleb128 0x49


 2676 0042 13        		.uleb128 0x13
 2677 0043 38        		.uleb128 0x38
 2678 0044 0B        		.uleb128 0xb
 2679 0045 00        		.byte	0
 2680 0046 00        		.byte	0
 2681 0047 06        		.uleb128 0x6
 2682 0048 15        		.uleb128 0x15
 2683 0049 01        		.byte	0x1
 2684 004a 01        		.uleb128 0x1
 2685 004b 13        		.uleb128 0x13
 2686 004c 00        		.byte	0
 2687 004d 00        		.byte	0
 2688 004e 07        		.uleb128 0x7
 2689 004f 18        		.uleb128 0x18
 2690 0050 00        		.byte	0
 2691 0051 00        		.byte	0
 2692 0052 00        		.byte	0
 2693 0053 08        		.uleb128 0x8
 2694 0054 0F        		.uleb128 0xf
 2695 0055 00        		.byte	0
 2696 0056 0B        		.uleb128 0xb
 2697 0057 0B        		.uleb128 0xb
 2698 0058 49        		.uleb128 0x49
 2699 0059 13        		.uleb128 0x13
 2700 005a 00        		.byte	0
 2701 005b 00        		.byte	0
 2702 005c 09        		.uleb128 0x9
 2703 005d 0F        		.uleb128 0xf
 2704 005e 00        		.byte	0
 2705 005f 0B        		.uleb128 0xb
 2706 0060 0B        		.uleb128 0xb
 2707 0061 00        		.byte	0
 2708 0062 00        		.byte	0
 2709 0063 0A        		.uleb128 0xa
 2710 0064 13        		.uleb128 0x13
 2711 0065 01        		.byte	0x1
 2712 0066 0B        		.uleb128 0xb
 2713 0067 05        		.uleb128 0x5
 2714 0068 3A        		.uleb128 0x3a
 2715 0069 0B        		.uleb128 0xb
 2716 006a 3B        		.uleb128 0x3b
 2717 006b 0B        		.uleb128 0xb
 2718 006c 01        		.uleb128 0x1
 2719 006d 13        		.uleb128 0x13
 2720 006e 00        		.byte	0
 2721 006f 00        		.byte	0
 2722 0070 0B        		.uleb128 0xb
 2723 0071 0D        		.uleb128 0xd
 2724 0072 00        		.byte	0
 2725 0073 03        		.uleb128 0x3
 2726 0074 0E        		.uleb128 0xe
 2727 0075 3A        		.uleb128 0x3a
 2728 0076 0B        		.uleb128 0xb
 2729 0077 3B        		.uleb128 0x3b
 2730 0078 0B        		.uleb128 0xb
 2731 0079 49        		.uleb128 0x49
 2732 007a 13        		.uleb128 0x13


 2733 007b 38        		.uleb128 0x38
 2734 007c 05        		.uleb128 0x5
 2735 007d 00        		.byte	0
 2736 007e 00        		.byte	0
 2737 007f 0C        		.uleb128 0xc
 2738 0080 01        		.uleb128 0x1
 2739 0081 01        		.byte	0x1
 2740 0082 49        		.uleb128 0x49
 2741 0083 13        		.uleb128 0x13
 2742 0084 01        		.uleb128 0x1
 2743 0085 13        		.uleb128 0x13
 2744 0086 00        		.byte	0
 2745 0087 00        		.byte	0
 2746 0088 0D        		.uleb128 0xd
 2747 0089 21        		.uleb128 0x21
 2748 008a 00        		.byte	0
 2749 008b 49        		.uleb128 0x49
 2750 008c 13        		.uleb128 0x13
 2751 008d 2F        		.uleb128 0x2f
 2752 008e 05        		.uleb128 0x5
 2753 008f 00        		.byte	0
 2754 0090 00        		.byte	0
 2755 0091 0E        		.uleb128 0xe
 2756 0092 24        		.uleb128 0x24
 2757 0093 00        		.byte	0
 2758 0094 0B        		.uleb128 0xb
 2759 0095 0B        		.uleb128 0xb
 2760 0096 3E        		.uleb128 0x3e
 2761 0097 0B        		.uleb128 0xb
 2762 0098 03        		.uleb128 0x3
 2763 0099 0E        		.uleb128 0xe
 2764 009a 00        		.byte	0
 2765 009b 00        		.byte	0
 2766 009c 0F        		.uleb128 0xf
 2767 009d 16        		.uleb128 0x16
 2768 009e 00        		.byte	0
 2769 009f 03        		.uleb128 0x3
 2770 00a0 0E        		.uleb128 0xe
 2771 00a1 3A        		.uleb128 0x3a
 2772 00a2 0B        		.uleb128 0xb
 2773 00a3 3B        		.uleb128 0x3b
 2774 00a4 05        		.uleb128 0x5
 2775 00a5 49        		.uleb128 0x49
 2776 00a6 13        		.uleb128 0x13
 2777 00a7 00        		.byte	0
 2778 00a8 00        		.byte	0
 2779 00a9 10        		.uleb128 0x10
 2780 00aa 17        		.uleb128 0x17
 2781 00ab 01        		.byte	0x1
 2782 00ac 0B        		.uleb128 0xb
 2783 00ad 0B        		.uleb128 0xb
 2784 00ae 3A        		.uleb128 0x3a
 2785 00af 0B        		.uleb128 0xb
 2786 00b0 3B        		.uleb128 0x3b
 2787 00b1 0B        		.uleb128 0xb
 2788 00b2 01        		.uleb128 0x1
 2789 00b3 13        		.uleb128 0x13


 2790 00b4 00        		.byte	0
 2791 00b5 00        		.byte	0
 2792 00b6 11        		.uleb128 0x11
 2793 00b7 0D        		.uleb128 0xd
 2794 00b8 00        		.byte	0
 2795 00b9 03        		.uleb128 0x3
 2796 00ba 0E        		.uleb128 0xe
 2797 00bb 3A        		.uleb128 0x3a
 2798 00bc 0B        		.uleb128 0xb
 2799 00bd 3B        		.uleb128 0x3b
 2800 00be 0B        		.uleb128 0xb
 2801 00bf 49        		.uleb128 0x49
 2802 00c0 13        		.uleb128 0x13
 2803 00c1 00        		.byte	0
 2804 00c2 00        		.byte	0
 2805 00c3 12        		.uleb128 0x12
 2806 00c4 21        		.uleb128 0x21
 2807 00c5 00        		.byte	0
 2808 00c6 49        		.uleb128 0x49
 2809 00c7 13        		.uleb128 0x13
 2810 00c8 2F        		.uleb128 0x2f
 2811 00c9 0B        		.uleb128 0xb
 2812 00ca 00        		.byte	0
 2813 00cb 00        		.byte	0
 2814 00cc 13        		.uleb128 0x13
 2815 00cd 13        		.uleb128 0x13
 2816 00ce 01        		.byte	0x1
 2817 00cf 03        		.uleb128 0x3
 2818 00d0 0E        		.uleb128 0xe
 2819 00d1 0B        		.uleb128 0xb
 2820 00d2 0B        		.uleb128 0xb
 2821 00d3 3A        		.uleb128 0x3a
 2822 00d4 0B        		.uleb128 0xb
 2823 00d5 3B        		.uleb128 0x3b
 2824 00d6 0B        		.uleb128 0xb
 2825 00d7 01        		.uleb128 0x1
 2826 00d8 13        		.uleb128 0x13
 2827 00d9 00        		.byte	0
 2828 00da 00        		.byte	0
 2829 00db 14        		.uleb128 0x14
 2830 00dc 0D        		.uleb128 0xd
 2831 00dd 00        		.byte	0
 2832 00de 03        		.uleb128 0x3
 2833 00df 08        		.uleb128 0x8
 2834 00e0 3A        		.uleb128 0x3a
 2835 00e1 0B        		.uleb128 0xb
 2836 00e2 3B        		.uleb128 0x3b
 2837 00e3 0B        		.uleb128 0xb
 2838 00e4 49        		.uleb128 0x49
 2839 00e5 13        		.uleb128 0x13
 2840 00e6 38        		.uleb128 0x38
 2841 00e7 0B        		.uleb128 0xb
 2842 00e8 00        		.byte	0
 2843 00e9 00        		.byte	0
 2844 00ea 15        		.uleb128 0x15
 2845 00eb 13        		.uleb128 0x13
 2846 00ec 01        		.byte	0x1


 2847 00ed 03        		.uleb128 0x3
 2848 00ee 0E        		.uleb128 0xe
 2849 00ef 0B        		.uleb128 0xb
 2850 00f0 05        		.uleb128 0x5
 2851 00f1 3A        		.uleb128 0x3a
 2852 00f2 0B        		.uleb128 0xb
 2853 00f3 3B        		.uleb128 0x3b
 2854 00f4 0B        		.uleb128 0xb
 2855 00f5 01        		.uleb128 0x1
 2856 00f6 13        		.uleb128 0x13
 2857 00f7 00        		.byte	0
 2858 00f8 00        		.byte	0
 2859 00f9 16        		.uleb128 0x16
 2860 00fa 15        		.uleb128 0x15
 2861 00fb 00        		.byte	0
 2862 00fc 27        		.uleb128 0x27
 2863 00fd 19        		.uleb128 0x19
 2864 00fe 00        		.byte	0
 2865 00ff 00        		.byte	0
 2866 0100 17        		.uleb128 0x17
 2867 0101 15        		.uleb128 0x15
 2868 0102 01        		.byte	0x1
 2869 0103 27        		.uleb128 0x27
 2870 0104 19        		.uleb128 0x19
 2871 0105 49        		.uleb128 0x49
 2872 0106 13        		.uleb128 0x13
 2873 0107 01        		.uleb128 0x1
 2874 0108 13        		.uleb128 0x13
 2875 0109 00        		.byte	0
 2876 010a 00        		.byte	0
 2877 010b 18        		.uleb128 0x18
 2878 010c 05        		.uleb128 0x5
 2879 010d 00        		.byte	0
 2880 010e 49        		.uleb128 0x49
 2881 010f 13        		.uleb128 0x13
 2882 0110 00        		.byte	0
 2883 0111 00        		.byte	0
 2884 0112 19        		.uleb128 0x19
 2885 0113 13        		.uleb128 0x13
 2886 0114 01        		.byte	0x1
 2887 0115 03        		.uleb128 0x3
 2888 0116 0E        		.uleb128 0xe
 2889 0117 0B        		.uleb128 0xb
 2890 0118 05        		.uleb128 0x5
 2891 0119 3A        		.uleb128 0x3a
 2892 011a 0B        		.uleb128 0xb
 2893 011b 3B        		.uleb128 0x3b
 2894 011c 05        		.uleb128 0x5
 2895 011d 01        		.uleb128 0x1
 2896 011e 13        		.uleb128 0x13
 2897 011f 00        		.byte	0
 2898 0120 00        		.byte	0
 2899 0121 1A        		.uleb128 0x1a
 2900 0122 0D        		.uleb128 0xd
 2901 0123 00        		.byte	0
 2902 0124 03        		.uleb128 0x3
 2903 0125 0E        		.uleb128 0xe


 2904 0126 3A        		.uleb128 0x3a
 2905 0127 0B        		.uleb128 0xb
 2906 0128 3B        		.uleb128 0x3b
 2907 0129 05        		.uleb128 0x5
 2908 012a 49        		.uleb128 0x49
 2909 012b 13        		.uleb128 0x13
 2910 012c 38        		.uleb128 0x38
 2911 012d 0B        		.uleb128 0xb
 2912 012e 00        		.byte	0
 2913 012f 00        		.byte	0
 2914 0130 1B        		.uleb128 0x1b
 2915 0131 0D        		.uleb128 0xd
 2916 0132 00        		.byte	0
 2917 0133 03        		.uleb128 0x3
 2918 0134 0E        		.uleb128 0xe
 2919 0135 3A        		.uleb128 0x3a
 2920 0136 0B        		.uleb128 0xb
 2921 0137 3B        		.uleb128 0x3b
 2922 0138 05        		.uleb128 0x5
 2923 0139 49        		.uleb128 0x49
 2924 013a 13        		.uleb128 0x13
 2925 013b 38        		.uleb128 0x38
 2926 013c 05        		.uleb128 0x5
 2927 013d 00        		.byte	0
 2928 013e 00        		.byte	0
 2929 013f 1C        		.uleb128 0x1c
 2930 0140 26        		.uleb128 0x26
 2931 0141 00        		.byte	0
 2932 0142 49        		.uleb128 0x49
 2933 0143 13        		.uleb128 0x13
 2934 0144 00        		.byte	0
 2935 0145 00        		.byte	0
 2936 0146 1D        		.uleb128 0x1d
 2937 0147 13        		.uleb128 0x13
 2938 0148 01        		.byte	0x1
 2939 0149 03        		.uleb128 0x3
 2940 014a 0E        		.uleb128 0xe
 2941 014b 0B        		.uleb128 0xb
 2942 014c 0B        		.uleb128 0xb
 2943 014d 3A        		.uleb128 0x3a
 2944 014e 0B        		.uleb128 0xb
 2945 014f 3B        		.uleb128 0x3b
 2946 0150 05        		.uleb128 0x5
 2947 0151 01        		.uleb128 0x1
 2948 0152 13        		.uleb128 0x13
 2949 0153 00        		.byte	0
 2950 0154 00        		.byte	0
 2951 0155 1E        		.uleb128 0x1e
 2952 0156 13        		.uleb128 0x13
 2953 0157 01        		.byte	0x1
 2954 0158 0B        		.uleb128 0xb
 2955 0159 0B        		.uleb128 0xb
 2956 015a 3A        		.uleb128 0x3a
 2957 015b 0B        		.uleb128 0xb
 2958 015c 3B        		.uleb128 0x3b
 2959 015d 05        		.uleb128 0x5
 2960 015e 01        		.uleb128 0x1


 2961 015f 13        		.uleb128 0x13
 2962 0160 00        		.byte	0
 2963 0161 00        		.byte	0
 2964 0162 1F        		.uleb128 0x1f
 2965 0163 17        		.uleb128 0x17
 2966 0164 01        		.byte	0x1
 2967 0165 0B        		.uleb128 0xb
 2968 0166 0B        		.uleb128 0xb
 2969 0167 3A        		.uleb128 0x3a
 2970 0168 0B        		.uleb128 0xb
 2971 0169 3B        		.uleb128 0x3b
 2972 016a 05        		.uleb128 0x5
 2973 016b 01        		.uleb128 0x1
 2974 016c 13        		.uleb128 0x13
 2975 016d 00        		.byte	0
 2976 016e 00        		.byte	0
 2977 016f 20        		.uleb128 0x20
 2978 0170 0D        		.uleb128 0xd
 2979 0171 00        		.byte	0
 2980 0172 03        		.uleb128 0x3
 2981 0173 0E        		.uleb128 0xe
 2982 0174 3A        		.uleb128 0x3a
 2983 0175 0B        		.uleb128 0xb
 2984 0176 3B        		.uleb128 0x3b
 2985 0177 05        		.uleb128 0x5
 2986 0178 49        		.uleb128 0x49
 2987 0179 13        		.uleb128 0x13
 2988 017a 00        		.byte	0
 2989 017b 00        		.byte	0
 2990 017c 21        		.uleb128 0x21
 2991 017d 13        		.uleb128 0x13
 2992 017e 00        		.byte	0
 2993 017f 03        		.uleb128 0x3
 2994 0180 0E        		.uleb128 0xe
 2995 0181 3C        		.uleb128 0x3c
 2996 0182 19        		.uleb128 0x19
 2997 0183 00        		.byte	0
 2998 0184 00        		.byte	0
 2999 0185 22        		.uleb128 0x22
 3000 0186 15        		.uleb128 0x15
 3001 0187 01        		.byte	0x1
 3002 0188 27        		.uleb128 0x27
 3003 0189 19        		.uleb128 0x19
 3004 018a 01        		.uleb128 0x1
 3005 018b 13        		.uleb128 0x13
 3006 018c 00        		.byte	0
 3007 018d 00        		.byte	0
 3008 018e 23        		.uleb128 0x23
 3009 018f 2E        		.uleb128 0x2e
 3010 0190 01        		.byte	0x1
 3011 0191 3F        		.uleb128 0x3f
 3012 0192 19        		.uleb128 0x19
 3013 0193 03        		.uleb128 0x3
 3014 0194 0E        		.uleb128 0xe
 3015 0195 3A        		.uleb128 0x3a
 3016 0196 0B        		.uleb128 0xb
 3017 0197 3B        		.uleb128 0x3b


 3018 0198 0B        		.uleb128 0xb
 3019 0199 27        		.uleb128 0x27
 3020 019a 19        		.uleb128 0x19
 3021 019b 49        		.uleb128 0x49
 3022 019c 13        		.uleb128 0x13
 3023 019d 20        		.uleb128 0x20
 3024 019e 0B        		.uleb128 0xb
 3025 019f 01        		.uleb128 0x1
 3026 01a0 13        		.uleb128 0x13
 3027 01a1 00        		.byte	0
 3028 01a2 00        		.byte	0
 3029 01a3 24        		.uleb128 0x24
 3030 01a4 05        		.uleb128 0x5
 3031 01a5 00        		.byte	0
 3032 01a6 03        		.uleb128 0x3
 3033 01a7 08        		.uleb128 0x8
 3034 01a8 3A        		.uleb128 0x3a
 3035 01a9 0B        		.uleb128 0xb
 3036 01aa 3B        		.uleb128 0x3b
 3037 01ab 0B        		.uleb128 0xb
 3038 01ac 49        		.uleb128 0x49
 3039 01ad 13        		.uleb128 0x13
 3040 01ae 00        		.byte	0
 3041 01af 00        		.byte	0
 3042 01b0 25        		.uleb128 0x25
 3043 01b1 34        		.uleb128 0x34
 3044 01b2 00        		.byte	0
 3045 01b3 03        		.uleb128 0x3
 3046 01b4 0E        		.uleb128 0xe
 3047 01b5 3A        		.uleb128 0x3a
 3048 01b6 0B        		.uleb128 0xb
 3049 01b7 3B        		.uleb128 0x3b
 3050 01b8 0B        		.uleb128 0xb
 3051 01b9 49        		.uleb128 0x49
 3052 01ba 13        		.uleb128 0x13
 3053 01bb 00        		.byte	0
 3054 01bc 00        		.byte	0
 3055 01bd 26        		.uleb128 0x26
 3056 01be 2E        		.uleb128 0x2e
 3057 01bf 01        		.byte	0x1
 3058 01c0 3F        		.uleb128 0x3f
 3059 01c1 19        		.uleb128 0x19
 3060 01c2 03        		.uleb128 0x3
 3061 01c3 0E        		.uleb128 0xe
 3062 01c4 3A        		.uleb128 0x3a
 3063 01c5 0B        		.uleb128 0xb
 3064 01c6 3B        		.uleb128 0x3b
 3065 01c7 0B        		.uleb128 0xb
 3066 01c8 27        		.uleb128 0x27
 3067 01c9 19        		.uleb128 0x19
 3068 01ca 20        		.uleb128 0x20
 3069 01cb 0B        		.uleb128 0xb
 3070 01cc 01        		.uleb128 0x1
 3071 01cd 13        		.uleb128 0x13
 3072 01ce 00        		.byte	0
 3073 01cf 00        		.byte	0
 3074 01d0 27        		.uleb128 0x27


 3075 01d1 05        		.uleb128 0x5
 3076 01d2 00        		.byte	0
 3077 01d3 03        		.uleb128 0x3
 3078 01d4 0E        		.uleb128 0xe
 3079 01d5 3A        		.uleb128 0x3a
 3080 01d6 0B        		.uleb128 0xb
 3081 01d7 3B        		.uleb128 0x3b
 3082 01d8 0B        		.uleb128 0xb
 3083 01d9 49        		.uleb128 0x49
 3084 01da 13        		.uleb128 0x13
 3085 01db 00        		.byte	0
 3086 01dc 00        		.byte	0
 3087 01dd 28        		.uleb128 0x28
 3088 01de 34        		.uleb128 0x34
 3089 01df 00        		.byte	0
 3090 01e0 03        		.uleb128 0x3
 3091 01e1 08        		.uleb128 0x8
 3092 01e2 3A        		.uleb128 0x3a
 3093 01e3 0B        		.uleb128 0xb
 3094 01e4 3B        		.uleb128 0x3b
 3095 01e5 0B        		.uleb128 0xb
 3096 01e6 49        		.uleb128 0x49
 3097 01e7 13        		.uleb128 0x13
 3098 01e8 00        		.byte	0
 3099 01e9 00        		.byte	0
 3100 01ea 29        		.uleb128 0x29
 3101 01eb 0B        		.uleb128 0xb
 3102 01ec 01        		.byte	0x1
 3103 01ed 00        		.byte	0
 3104 01ee 00        		.byte	0
 3105 01ef 2A        		.uleb128 0x2a
 3106 01f0 2E        		.uleb128 0x2e
 3107 01f1 00        		.byte	0
 3108 01f2 3F        		.uleb128 0x3f
 3109 01f3 19        		.uleb128 0x19
 3110 01f4 03        		.uleb128 0x3
 3111 01f5 0E        		.uleb128 0xe
 3112 01f6 3A        		.uleb128 0x3a
 3113 01f7 0B        		.uleb128 0xb
 3114 01f8 3B        		.uleb128 0x3b
 3115 01f9 0B        		.uleb128 0xb
 3116 01fa 27        		.uleb128 0x27
 3117 01fb 19        		.uleb128 0x19
 3118 01fc 20        		.uleb128 0x20
 3119 01fd 0B        		.uleb128 0xb
 3120 01fe 00        		.byte	0
 3121 01ff 00        		.byte	0
 3122 0200 2B        		.uleb128 0x2b
 3123 0201 2E        		.uleb128 0x2e
 3124 0202 01        		.byte	0x1
 3125 0203 3F        		.uleb128 0x3f
 3126 0204 19        		.uleb128 0x19
 3127 0205 03        		.uleb128 0x3
 3128 0206 0E        		.uleb128 0xe
 3129 0207 3A        		.uleb128 0x3a
 3130 0208 0B        		.uleb128 0xb
 3131 0209 3B        		.uleb128 0x3b


 3132 020a 0B        		.uleb128 0xb
 3133 020b 27        		.uleb128 0x27
 3134 020c 19        		.uleb128 0x19
 3135 020d 11        		.uleb128 0x11
 3136 020e 01        		.uleb128 0x1
 3137 020f 12        		.uleb128 0x12
 3138 0210 06        		.uleb128 0x6
 3139 0211 40        		.uleb128 0x40
 3140 0212 18        		.uleb128 0x18
 3141 0213 9742      		.uleb128 0x2117
 3142 0215 19        		.uleb128 0x19
 3143 0216 01        		.uleb128 0x1
 3144 0217 13        		.uleb128 0x13
 3145 0218 00        		.byte	0
 3146 0219 00        		.byte	0
 3147 021a 2C        		.uleb128 0x2c
 3148 021b 0B        		.uleb128 0xb
 3149 021c 01        		.byte	0x1
 3150 021d 11        		.uleb128 0x11
 3151 021e 01        		.uleb128 0x1
 3152 021f 12        		.uleb128 0x12
 3153 0220 06        		.uleb128 0x6
 3154 0221 01        		.uleb128 0x1
 3155 0222 13        		.uleb128 0x13
 3156 0223 00        		.byte	0
 3157 0224 00        		.byte	0
 3158 0225 2D        		.uleb128 0x2d
 3159 0226 34        		.uleb128 0x34
 3160 0227 00        		.byte	0
 3161 0228 03        		.uleb128 0x3
 3162 0229 08        		.uleb128 0x8
 3163 022a 3A        		.uleb128 0x3a
 3164 022b 0B        		.uleb128 0xb
 3165 022c 3B        		.uleb128 0x3b
 3166 022d 0B        		.uleb128 0xb
 3167 022e 49        		.uleb128 0x49
 3168 022f 13        		.uleb128 0x13
 3169 0230 02        		.uleb128 0x2
 3170 0231 17        		.uleb128 0x17
 3171 0232 00        		.byte	0
 3172 0233 00        		.byte	0
 3173 0234 2E        		.uleb128 0x2e
 3174 0235 0B        		.uleb128 0xb
 3175 0236 01        		.byte	0x1
 3176 0237 11        		.uleb128 0x11
 3177 0238 01        		.uleb128 0x1
 3178 0239 12        		.uleb128 0x12
 3179 023a 06        		.uleb128 0x6
 3180 023b 00        		.byte	0
 3181 023c 00        		.byte	0
 3182 023d 2F        		.uleb128 0x2f
 3183 023e 05        		.uleb128 0x5
 3184 023f 00        		.byte	0
 3185 0240 03        		.uleb128 0x3
 3186 0241 08        		.uleb128 0x8
 3187 0242 3A        		.uleb128 0x3a
 3188 0243 0B        		.uleb128 0xb


 3189 0244 3B        		.uleb128 0x3b
 3190 0245 0B        		.uleb128 0xb
 3191 0246 49        		.uleb128 0x49
 3192 0247 13        		.uleb128 0x13
 3193 0248 02        		.uleb128 0x2
 3194 0249 18        		.uleb128 0x18
 3195 024a 00        		.byte	0
 3196 024b 00        		.byte	0
 3197 024c 30        		.uleb128 0x30
 3198 024d 1D        		.uleb128 0x1d
 3199 024e 01        		.byte	0x1
 3200 024f 31        		.uleb128 0x31
 3201 0250 13        		.uleb128 0x13
 3202 0251 52        		.uleb128 0x52
 3203 0252 01        		.uleb128 0x1
 3204 0253 55        		.uleb128 0x55
 3205 0254 17        		.uleb128 0x17
 3206 0255 58        		.uleb128 0x58
 3207 0256 0B        		.uleb128 0xb
 3208 0257 59        		.uleb128 0x59
 3209 0258 0B        		.uleb128 0xb
 3210 0259 01        		.uleb128 0x1
 3211 025a 13        		.uleb128 0x13
 3212 025b 00        		.byte	0
 3213 025c 00        		.byte	0
 3214 025d 31        		.uleb128 0x31
 3215 025e 05        		.uleb128 0x5
 3216 025f 00        		.byte	0
 3217 0260 31        		.uleb128 0x31
 3218 0261 13        		.uleb128 0x13
 3219 0262 02        		.uleb128 0x2
 3220 0263 17        		.uleb128 0x17
 3221 0264 00        		.byte	0
 3222 0265 00        		.byte	0
 3223 0266 32        		.uleb128 0x32
 3224 0267 0B        		.uleb128 0xb
 3225 0268 01        		.byte	0x1
 3226 0269 55        		.uleb128 0x55
 3227 026a 17        		.uleb128 0x17
 3228 026b 00        		.byte	0
 3229 026c 00        		.byte	0
 3230 026d 33        		.uleb128 0x33
 3231 026e 34        		.uleb128 0x34
 3232 026f 00        		.byte	0
 3233 0270 31        		.uleb128 0x31
 3234 0271 13        		.uleb128 0x13
 3235 0272 02        		.uleb128 0x2
 3236 0273 17        		.uleb128 0x17
 3237 0274 00        		.byte	0
 3238 0275 00        		.byte	0
 3239 0276 34        		.uleb128 0x34
 3240 0277 34        		.uleb128 0x34
 3241 0278 00        		.byte	0
 3242 0279 31        		.uleb128 0x31
 3243 027a 13        		.uleb128 0x13
 3244 027b 00        		.byte	0
 3245 027c 00        		.byte	0


 3246 027d 35        		.uleb128 0x35
 3247 027e 1D        		.uleb128 0x1d
 3248 027f 01        		.byte	0x1
 3249 0280 31        		.uleb128 0x31
 3250 0281 13        		.uleb128 0x13
 3251 0282 52        		.uleb128 0x52
 3252 0283 01        		.uleb128 0x1
 3253 0284 55        		.uleb128 0x55
 3254 0285 17        		.uleb128 0x17
 3255 0286 58        		.uleb128 0x58
 3256 0287 0B        		.uleb128 0xb
 3257 0288 59        		.uleb128 0x59
 3258 0289 0B        		.uleb128 0xb
 3259 028a 00        		.byte	0
 3260 028b 00        		.byte	0
 3261 028c 36        		.uleb128 0x36
 3262 028d 2E        		.uleb128 0x2e
 3263 028e 01        		.byte	0x1
 3264 028f 31        		.uleb128 0x31
 3265 0290 13        		.uleb128 0x13
 3266 0291 11        		.uleb128 0x11
 3267 0292 01        		.uleb128 0x1
 3268 0293 12        		.uleb128 0x12
 3269 0294 06        		.uleb128 0x6
 3270 0295 40        		.uleb128 0x40
 3271 0296 18        		.uleb128 0x18
 3272 0297 9742      		.uleb128 0x2117
 3273 0299 19        		.uleb128 0x19
 3274 029a 01        		.uleb128 0x1
 3275 029b 13        		.uleb128 0x13
 3276 029c 00        		.byte	0
 3277 029d 00        		.byte	0
 3278 029e 37        		.uleb128 0x37
 3279 029f 05        		.uleb128 0x5
 3280 02a0 00        		.byte	0
 3281 02a1 31        		.uleb128 0x31
 3282 02a2 13        		.uleb128 0x13
 3283 02a3 02        		.uleb128 0x2
 3284 02a4 18        		.uleb128 0x18
 3285 02a5 00        		.byte	0
 3286 02a6 00        		.byte	0
 3287 02a7 38        		.uleb128 0x38
 3288 02a8 34        		.uleb128 0x34
 3289 02a9 00        		.byte	0
 3290 02aa 31        		.uleb128 0x31
 3291 02ab 13        		.uleb128 0x13
 3292 02ac 02        		.uleb128 0x2
 3293 02ad 18        		.uleb128 0x18
 3294 02ae 00        		.byte	0
 3295 02af 00        		.byte	0
 3296 02b0 39        		.uleb128 0x39
 3297 02b1 34        		.uleb128 0x34
 3298 02b2 00        		.byte	0
 3299 02b3 03        		.uleb128 0x3
 3300 02b4 08        		.uleb128 0x8
 3301 02b5 3A        		.uleb128 0x3a
 3302 02b6 0B        		.uleb128 0xb


 3303 02b7 3B        		.uleb128 0x3b
 3304 02b8 0B        		.uleb128 0xb
 3305 02b9 49        		.uleb128 0x49
 3306 02ba 13        		.uleb128 0x13
 3307 02bb 02        		.uleb128 0x2
 3308 02bc 18        		.uleb128 0x18
 3309 02bd 00        		.byte	0
 3310 02be 00        		.byte	0
 3311 02bf 3A        		.uleb128 0x3a
 3312 02c0 1D        		.uleb128 0x1d
 3313 02c1 01        		.byte	0x1
 3314 02c2 31        		.uleb128 0x31
 3315 02c3 13        		.uleb128 0x13
 3316 02c4 11        		.uleb128 0x11
 3317 02c5 01        		.uleb128 0x1
 3318 02c6 12        		.uleb128 0x12
 3319 02c7 06        		.uleb128 0x6
 3320 02c8 58        		.uleb128 0x58
 3321 02c9 0B        		.uleb128 0xb
 3322 02ca 59        		.uleb128 0x59
 3323 02cb 0B        		.uleb128 0xb
 3324 02cc 01        		.uleb128 0x1
 3325 02cd 13        		.uleb128 0x13
 3326 02ce 00        		.byte	0
 3327 02cf 00        		.byte	0
 3328 02d0 3B        		.uleb128 0x3b
 3329 02d1 8982 01   		.uleb128 0x4109
 3330 02d4 00        		.byte	0
 3331 02d5 11        		.uleb128 0x11
 3332 02d6 01        		.uleb128 0x1
 3333 02d7 31        		.uleb128 0x31
 3334 02d8 13        		.uleb128 0x13
 3335 02d9 00        		.byte	0
 3336 02da 00        		.byte	0
 3337 02db 3C        		.uleb128 0x3c
 3338 02dc 8982 01   		.uleb128 0x4109
 3339 02df 00        		.byte	0
 3340 02e0 11        		.uleb128 0x11
 3341 02e1 01        		.uleb128 0x1
 3342 02e2 9542      		.uleb128 0x2115
 3343 02e4 19        		.uleb128 0x19
 3344 02e5 31        		.uleb128 0x31
 3345 02e6 13        		.uleb128 0x13
 3346 02e7 00        		.byte	0
 3347 02e8 00        		.byte	0
 3348 02e9 3D        		.uleb128 0x3d
 3349 02ea 1D        		.uleb128 0x1d
 3350 02eb 01        		.byte	0x1
 3351 02ec 31        		.uleb128 0x31
 3352 02ed 13        		.uleb128 0x13
 3353 02ee 11        		.uleb128 0x11
 3354 02ef 01        		.uleb128 0x1
 3355 02f0 12        		.uleb128 0x12
 3356 02f1 06        		.uleb128 0x6
 3357 02f2 58        		.uleb128 0x58
 3358 02f3 0B        		.uleb128 0xb
 3359 02f4 59        		.uleb128 0x59


 3360 02f5 0B        		.uleb128 0xb
 3361 02f6 00        		.byte	0
 3362 02f7 00        		.byte	0
 3363 02f8 3E        		.uleb128 0x3e
 3364 02f9 05        		.uleb128 0x5
 3365 02fa 00        		.byte	0
 3366 02fb 03        		.uleb128 0x3
 3367 02fc 0E        		.uleb128 0xe
 3368 02fd 3A        		.uleb128 0x3a
 3369 02fe 0B        		.uleb128 0xb
 3370 02ff 3B        		.uleb128 0x3b
 3371 0300 0B        		.uleb128 0xb
 3372 0301 49        		.uleb128 0x49
 3373 0302 13        		.uleb128 0x13
 3374 0303 02        		.uleb128 0x2
 3375 0304 17        		.uleb128 0x17
 3376 0305 00        		.byte	0
 3377 0306 00        		.byte	0
 3378 0307 3F        		.uleb128 0x3f
 3379 0308 34        		.uleb128 0x34
 3380 0309 00        		.byte	0
 3381 030a 03        		.uleb128 0x3
 3382 030b 0E        		.uleb128 0xe
 3383 030c 3A        		.uleb128 0x3a
 3384 030d 0B        		.uleb128 0xb
 3385 030e 3B        		.uleb128 0x3b
 3386 030f 0B        		.uleb128 0xb
 3387 0310 49        		.uleb128 0x49
 3388 0311 13        		.uleb128 0x13
 3389 0312 02        		.uleb128 0x2
 3390 0313 17        		.uleb128 0x17
 3391 0314 00        		.byte	0
 3392 0315 00        		.byte	0
 3393 0316 40        		.uleb128 0x40
 3394 0317 05        		.uleb128 0x5
 3395 0318 00        		.byte	0
 3396 0319 31        		.uleb128 0x31
 3397 031a 13        		.uleb128 0x13
 3398 031b 00        		.byte	0
 3399 031c 00        		.byte	0
 3400 031d 41        		.uleb128 0x41
 3401 031e 05        		.uleb128 0x5
 3402 031f 00        		.byte	0
 3403 0320 03        		.uleb128 0x3
 3404 0321 0E        		.uleb128 0xe
 3405 0322 3A        		.uleb128 0x3a
 3406 0323 0B        		.uleb128 0xb
 3407 0324 3B        		.uleb128 0x3b
 3408 0325 0B        		.uleb128 0xb
 3409 0326 49        		.uleb128 0x49
 3410 0327 13        		.uleb128 0x13
 3411 0328 02        		.uleb128 0x2
 3412 0329 18        		.uleb128 0x18
 3413 032a 00        		.byte	0
 3414 032b 00        		.byte	0
 3415 032c 42        		.uleb128 0x42
 3416 032d 34        		.uleb128 0x34


 3417 032e 00        		.byte	0
 3418 032f 03        		.uleb128 0x3
 3419 0330 0E        		.uleb128 0xe
 3420 0331 3A        		.uleb128 0x3a
 3421 0332 0B        		.uleb128 0xb
 3422 0333 3B        		.uleb128 0x3b
 3423 0334 0B        		.uleb128 0xb
 3424 0335 49        		.uleb128 0x49
 3425 0336 13        		.uleb128 0x13
 3426 0337 3F        		.uleb128 0x3f
 3427 0338 19        		.uleb128 0x19
 3428 0339 02        		.uleb128 0x2
 3429 033a 18        		.uleb128 0x18
 3430 033b 00        		.byte	0
 3431 033c 00        		.byte	0
 3432 033d 43        		.uleb128 0x43
 3433 033e 34        		.uleb128 0x34
 3434 033f 00        		.byte	0
 3435 0340 03        		.uleb128 0x3
 3436 0341 0E        		.uleb128 0xe
 3437 0342 3A        		.uleb128 0x3a
 3438 0343 0B        		.uleb128 0xb
 3439 0344 3B        		.uleb128 0x3b
 3440 0345 05        		.uleb128 0x5
 3441 0346 49        		.uleb128 0x49
 3442 0347 13        		.uleb128 0x13
 3443 0348 3F        		.uleb128 0x3f
 3444 0349 19        		.uleb128 0x19
 3445 034a 3C        		.uleb128 0x3c
 3446 034b 19        		.uleb128 0x19
 3447 034c 00        		.byte	0
 3448 034d 00        		.byte	0
 3449 034e 44        		.uleb128 0x44
 3450 034f 2E        		.uleb128 0x2e
 3451 0350 00        		.byte	0
 3452 0351 3F        		.uleb128 0x3f
 3453 0352 19        		.uleb128 0x19
 3454 0353 3C        		.uleb128 0x3c
 3455 0354 19        		.uleb128 0x19
 3456 0355 6E        		.uleb128 0x6e
 3457 0356 0E        		.uleb128 0xe
 3458 0357 03        		.uleb128 0x3
 3459 0358 0E        		.uleb128 0xe
 3460 0359 3A        		.uleb128 0x3a
 3461 035a 0B        		.uleb128 0xb
 3462 035b 3B        		.uleb128 0x3b
 3463 035c 0B        		.uleb128 0xb
 3464 035d 00        		.byte	0
 3465 035e 00        		.byte	0
 3466 035f 00        		.byte	0
 3467               		.section	.debug_loc,"",@progbits
 3468               	.Ldebug_loc0:
 3469               	.LLST0:
 3470 0000 0000 000E 		.long	.LVL0-.Ltext0
 3471 0004 0000 001C 		.long	.LVL1-.Ltext0
 3472 0008 0002      		.word	0x2
 3473 000a 30        		.byte	0x30


 3474 000b 9F        		.byte	0x9f
 3475 000c 0000 001C 		.long	.LVL1-.Ltext0
 3476 0010 0000 0028 		.long	.LVL2-.Ltext0
 3477 0014 0002      		.word	0x2
 3478 0016 31        		.byte	0x31
 3479 0017 9F        		.byte	0x9f
 3480 0018 0000 0028 		.long	.LVL2-.Ltext0
 3481 001c 0000 0034 		.long	.LVL3-.Ltext0
 3482 0020 0002      		.word	0x2
 3483 0022 32        		.byte	0x32
 3484 0023 9F        		.byte	0x9f
 3485 0024 0000 0034 		.long	.LVL3-.Ltext0
 3486 0028 0000 005A 		.long	.LFE3-.Ltext0
 3487 002c 0002      		.word	0x2
 3488 002e 33        		.byte	0x33
 3489 002f 9F        		.byte	0x9f
 3490 0030 0000 0000 		.long	0
 3491 0034 0000 0000 		.long	0
 3492               	.LLST1:
 3493 0038 0000 0034 		.long	.LVL3-.Ltext0
 3494 003c 0000 003A 		.long	.LVL4-.Ltext0
 3495 0040 0002      		.word	0x2
 3496 0042 30        		.byte	0x30
 3497 0043 9F        		.byte	0x9f
 3498 0044 0000 0000 		.long	0
 3499 0048 0000 0000 		.long	0
 3500               	.LLST2:
 3501 004c 0000 0062 		.long	.LVL6-.Ltext0
 3502 0050 0000 0074 		.long	.LVL7-.Ltext0
 3503 0054 0002      		.word	0x2
 3504 0056 31        		.byte	0x31
 3505 0057 9F        		.byte	0x9f
 3506 0058 0000 0074 		.long	.LVL7-.Ltext0
 3507 005c 0000 0078 		.long	.LVL8-.Ltext0
 3508 0060 0001      		.word	0x1
 3509 0062 50        		.byte	0x50
 3510 0063 0000 0078 		.long	.LVL8-.Ltext0
 3511 0067 0000 0084 		.long	.LVL9-.Ltext0
 3512 006b 0001      		.word	0x1
 3513 006d 58        		.byte	0x58
 3514 006e 0000 0084 		.long	.LVL9-.Ltext0
 3515 0072 0000 0088 		.long	.LVL10-.Ltext0
 3516 0076 0001      		.word	0x1
 3517 0078 50        		.byte	0x50
 3518 0079 0000 0088 		.long	.LVL10-.Ltext0
 3519 007d 0000 00EA 		.long	.LVL19-.Ltext0
 3520 0081 0001      		.word	0x1
 3521 0083 58        		.byte	0x58
 3522 0084 0000 012A 		.long	.LVL24-.Ltext0
 3523 0088 0000 018A 		.long	.LFE4-.Ltext0
 3524 008c 0002      		.word	0x2
 3525 008e 31        		.byte	0x31
 3526 008f 9F        		.byte	0x9f
 3527 0090 0000 0000 		.long	0
 3528 0094 0000 0000 		.long	0
 3529               	.LLST3:
 3530 0098 0000 00B8 		.long	.LVL11-.Ltext0


 3531 009c 0000 00DA 		.long	.LVL15-.Ltext0
 3532 00a0 0005      		.word	0x5
 3533 00a2 03        		.byte	0x3
 3534 00a3 0000 0000 		.long	new_task
 3535 00a7 0000 0154 		.long	.LVL25-.Ltext0
 3536 00ab 0000 0156 		.long	.LVL26-.Ltext0
 3537 00af 0001      		.word	0x1
 3538 00b1 51        		.byte	0x51
 3539 00b2 0000 0156 		.long	.LVL26-.Ltext0
 3540 00b6 0000 0176 		.long	.LVL30-.Ltext0
 3541 00ba 0001      		.word	0x1
 3542 00bc 58        		.byte	0x58
 3543 00bd 0000 0000 		.long	0
 3544 00c1 0000 0000 		.long	0
 3545               	.LLST4:
 3546 00c5 0000 00C6 		.long	.LVL12-.Ltext0
 3547 00c9 0000 00CE 		.long	.LVL14-.Ltext0
 3548 00cd 0003      		.word	0x3
 3549 00cf 7A        		.byte	0x7a
 3550 00d0 7C        		.sleb128 -4
 3551 00d1 9F        		.byte	0x9f
 3552 00d2 0000 00CE 		.long	.LVL14-.Ltext0
 3553 00d6 0000 00DA 		.long	.LVL15-.Ltext0
 3554 00da 0004      		.word	0x4
 3555 00dc 7A        		.byte	0x7a
 3556 00dd BA7F      		.sleb128 -70
 3557 00df 9F        		.byte	0x9f
 3558 00e0 0000 0162 		.long	.LVL27-.Ltext0
 3559 00e4 0000 016A 		.long	.LVL29-.Ltext0
 3560 00e8 0003      		.word	0x3
 3561 00ea 7A        		.byte	0x7a
 3562 00eb 7C        		.sleb128 -4
 3563 00ec 9F        		.byte	0x9f
 3564 00ed 0000 016A 		.long	.LVL29-.Ltext0
 3565 00f1 0000 0176 		.long	.LVL30-.Ltext0
 3566 00f5 0004      		.word	0x4
 3567 00f7 7A        		.byte	0x7a
 3568 00f8 BA7F      		.sleb128 -70
 3569 00fa 9F        		.byte	0x9f
 3570 00fb 0000 0000 		.long	0
 3571 00ff 0000 0000 		.long	0
 3572               	.LLST5:
 3573 0103 0000 00CA 		.long	.LVL13-.Ltext0
 3574 0107 0000 00DE 		.long	.LVL16-.Ltext0
 3575 010b 0003      		.word	0x3
 3576 010d 7A        		.byte	0x7a
 3577 010e 7A        		.sleb128 -6
 3578 010f 9F        		.byte	0x9f
 3579 0110 0000 00DE 		.long	.LVL16-.Ltext0
 3580 0114 0000 00EA 		.long	.LVL19-.Ltext0
 3581 0118 0004      		.word	0x4
 3582 011a 7A        		.byte	0x7a
 3583 011b C000      		.sleb128 64
 3584 011d 9F        		.byte	0x9f
 3585 011e 0000 0166 		.long	.LVL28-.Ltext0
 3586 0122 0000 017A 		.long	.LVL31-.Ltext0
 3587 0126 0003      		.word	0x3


 3588 0128 7A        		.byte	0x7a
 3589 0129 7A        		.sleb128 -6
 3590 012a 9F        		.byte	0x9f
 3591 012b 0000 017A 		.long	.LVL31-.Ltext0
 3592 012f 0000 018A 		.long	.LFE4-.Ltext0
 3593 0133 0004      		.word	0x4
 3594 0135 7A        		.byte	0x7a
 3595 0136 C000      		.sleb128 64
 3596 0138 9F        		.byte	0x9f
 3597 0139 0000 0000 		.long	0
 3598 013d 0000 0000 		.long	0
 3599               	.LLST6:
 3600 0141 0000 00E2 		.long	.LVL17-.Ltext0
 3601 0145 0000 00EA 		.long	.LVL19-.Ltext0
 3602 0149 0005      		.word	0x5
 3603 014b 03        		.byte	0x3
 3604 014c 0000 0000 		.long	new_task
 3605 0150 0000 00EA 		.long	.LVL19-.Ltext0
 3606 0154 0000 0108 		.long	.LVL21-.Ltext0
 3607 0158 0001      		.word	0x1
 3608 015a 58        		.byte	0x58
 3609 015b 0000 0108 		.long	.LVL21-.Ltext0
 3610 015f 0000 0114 		.long	.LVL22-.Ltext0
 3611 0163 0005      		.word	0x5
 3612 0165 03        		.byte	0x3
 3613 0166 0000 0000 		.long	new_task
 3614 016a 0000 011A 		.long	.LVL23-.Ltext0
 3615 016e 0000 012A 		.long	.LVL24-.Ltext0
 3616 0172 0001      		.word	0x1
 3617 0174 58        		.byte	0x58
 3618 0175 0000 017E 		.long	.LVL32-.Ltext0
 3619 0179 0000 018A 		.long	.LFE4-.Ltext0
 3620 017d 0001      		.word	0x1
 3621 017f 58        		.byte	0x58
 3622 0180 0000 0000 		.long	0
 3623 0184 0000 0000 		.long	0
 3624               	.LLST7:
 3625 0188 0000 00E2 		.long	.LVL17-.Ltext0
 3626 018c 0000 0114 		.long	.LVL22-.Ltext0
 3627 0190 0006      		.word	0x6
 3628 0192 03        		.byte	0x3
 3629 0193 0000 0000 		.long	ready
 3630 0197 9F        		.byte	0x9f
 3631 0198 0000 011A 		.long	.LVL23-.Ltext0
 3632 019c 0000 012A 		.long	.LVL24-.Ltext0
 3633 01a0 0006      		.word	0x6
 3634 01a2 03        		.byte	0x3
 3635 01a3 0000 0000 		.long	ready
 3636 01a7 9F        		.byte	0x9f
 3637 01a8 0000 017E 		.long	.LVL32-.Ltext0
 3638 01ac 0000 018A 		.long	.LFE4-.Ltext0
 3639 01b0 0006      		.word	0x6
 3640 01b2 03        		.byte	0x3
 3641 01b3 0000 0000 		.long	ready
 3642 01b7 9F        		.byte	0x9f
 3643 01b8 0000 0000 		.long	0
 3644 01bc 0000 0000 		.long	0


 3645               	.LLST8:
 3646 01c0 0000 00E8 		.long	.LVL18-.Ltext0
 3647 01c4 0000 00F2 		.long	.LVL20-.Ltext0
 3648 01c8 0001      		.word	0x1
 3649 01ca 50        		.byte	0x50
 3650 01cb 0000 011A 		.long	.LVL23-.Ltext0
 3651 01cf 0000 012A 		.long	.LVL24-.Ltext0
 3652 01d3 0001      		.word	0x1
 3653 01d5 50        		.byte	0x50
 3654 01d6 0000 0184 		.long	.LVL33-.Ltext0
 3655 01da 0000 018A 		.long	.LFE4-.Ltext0
 3656 01de 0001      		.word	0x1
 3657 01e0 50        		.byte	0x50
 3658 01e1 0000 0000 		.long	0
 3659 01e5 0000 0000 		.long	0
 3660               	.LLST9:
 3661 01e9 0000 019E 		.long	.LVL35-.Ltext0
 3662 01ed 0000 01BA 		.long	.LVL37-.Ltext0
 3663 01f1 0003      		.word	0x3
 3664 01f3 78        		.byte	0x78
 3665 01f4 7C        		.sleb128 -4
 3666 01f5 9F        		.byte	0x9f
 3667 01f6 0000 01BA 		.long	.LVL37-.Ltext0
 3668 01fa 0000 01CC 		.long	.LVL39-.Ltext0
 3669 01fe 0004      		.word	0x4
 3670 0200 78        		.byte	0x78
 3671 0201 BA7F      		.sleb128 -70
 3672 0203 9F        		.byte	0x9f
 3673 0204 0000 01CC 		.long	.LVL39-.Ltext0
 3674 0208 0000 01D0 		.long	.LFE5-.Ltext0
 3675 020c 0001      		.word	0x1
 3676 020e 50        		.byte	0x50
 3677 020f 0000 0000 		.long	0
 3678 0213 0000 0000 		.long	0
 3679               	.LLST10:
 3680 0217 0000 01C8 		.long	.LVL38-.Ltext0
 3681 021b 0000 01CC 		.long	.LVL39-.Ltext0
 3682 021f 0004      		.word	0x4
 3683 0221 78        		.byte	0x78
 3684 0222 BA7F      		.sleb128 -70
 3685 0224 9F        		.byte	0x9f
 3686 0225 0000 01CC 		.long	.LVL39-.Ltext0
 3687 0229 0000 01D0 		.long	.LFE5-.Ltext0
 3688 022d 0001      		.word	0x1
 3689 022f 50        		.byte	0x50
 3690 0230 0000 0000 		.long	0
 3691 0234 0000 0000 		.long	0
 3692               	.LLST11:
 3693 0238 0000 01D0 		.long	.LVL40-.Ltext0
 3694 023c 0000 01F0 		.long	.LVL42-.Ltext0
 3695 0240 0006      		.word	0x6
 3696 0242 03        		.byte	0x3
 3697 0243 0000 0000 		.long	ready
 3698 0247 9F        		.byte	0x9f
 3699 0248 0000 0000 		.long	0
 3700 024c 0000 0000 		.long	0
 3701               	.LLST12:


 3702 0250 0000 01D6 		.long	.LVL41-.Ltext0
 3703 0254 0000 01F0 		.long	.LVL42-.Ltext0
 3704 0258 0001      		.word	0x1
 3705 025a 51        		.byte	0x51
 3706 025b 0000 0000 		.long	0
 3707 025f 0000 0000 		.long	0
 3708               	.LLST13:
 3709 0263 0000 0220 		.long	.LVL47-.Ltext0
 3710 0267 0000 0240 		.long	.LVL49-.Ltext0
 3711 026b 0006      		.word	0x6
 3712 026d 03        		.byte	0x3
 3713 026e 0000 0000 		.long	ready
 3714 0272 9F        		.byte	0x9f
 3715 0273 0000 0000 		.long	0
 3716 0277 0000 0000 		.long	0
 3717               	.LLST14:
 3718 027b 0000 0226 		.long	.LVL48-.Ltext0
 3719 027f 0000 0240 		.long	.LVL49-.Ltext0
 3720 0283 0001      		.word	0x1
 3721 0285 51        		.byte	0x51
 3722 0286 0000 0000 		.long	0
 3723 028a 0000 0000 		.long	0
 3724               	.LLST15:
 3725 028e 0000 024C 		.long	.LVL50-.Ltext0
 3726 0292 0000 0272 		.long	.LVL54-.Ltext0
 3727 0296 0002      		.word	0x2
 3728 0298 91        		.byte	0x91
 3729 0299 04        		.sleb128 4
 3730 029a 0000 0000 		.long	0
 3731 029e 0000 0000 		.long	0
 3732               	.LLST16:
 3733 02a2 0000 0256 		.long	.LVL51-.Ltext0
 3734 02a6 0000 0260 		.long	.LVL53-.Ltext0
 3735 02aa 0001      		.word	0x1
 3736 02ac 50        		.byte	0x50
 3737 02ad 0000 0000 		.long	0
 3738 02b1 0000 0000 		.long	0
 3739               	.LLST17:
 3740 02b5 0000 0288 		.long	.LVL55-.Ltext0
 3741 02b9 0000 02A2 		.long	.LVL60-.Ltext0
 3742 02bd 0002      		.word	0x2
 3743 02bf 91        		.byte	0x91
 3744 02c0 00        		.sleb128 0
 3745 02c1 0000 02E0 		.long	.LVL65-.Ltext0
 3746 02c5 0000 0312 		.long	.LVL70-.Ltext0
 3747 02c9 0002      		.word	0x2
 3748 02cb 91        		.byte	0x91
 3749 02cc 00        		.sleb128 0
 3750 02cd 0000 0000 		.long	0
 3751 02d1 0000 0000 		.long	0
 3752               	.LLST18:
 3753 02d5 0000 0288 		.long	.LVL55-.Ltext0
 3754 02d9 0000 029C 		.long	.LVL57-.Ltext0
 3755 02dd 000C      		.word	0xc
 3756 02df 91        		.byte	0x91
 3757 02e0 70        		.sleb128 -16
 3758 02e1 06        		.byte	0x6


 3759 02e2 33        		.byte	0x33
 3760 02e3 24        		.byte	0x24
 3761 02e4 03        		.byte	0x3
 3762 02e5 0000 0000 		.long	semaphore+4
 3763 02e9 22        		.byte	0x22
 3764 02ea 9F        		.byte	0x9f
 3765 02eb 0000 029C 		.long	.LVL57-.Ltext0
 3766 02ef 0000 02A0 		.long	.LVL59-.Ltext0
 3767 02f3 0001      		.word	0x1
 3768 02f5 58        		.byte	0x58
 3769 02f6 0000 02A0 		.long	.LVL59-.Ltext0
 3770 02fa 0000 02A2 		.long	.LVL60-.Ltext0
 3771 02fe 000C      		.word	0xc
 3772 0300 91        		.byte	0x91
 3773 0301 70        		.sleb128 -16
 3774 0302 06        		.byte	0x6
 3775 0303 33        		.byte	0x33
 3776 0304 24        		.byte	0x24
 3777 0305 03        		.byte	0x3
 3778 0306 0000 0000 		.long	semaphore+4
 3779 030a 22        		.byte	0x22
 3780 030b 9F        		.byte	0x9f
 3781 030c 0000 02E0 		.long	.LVL65-.Ltext0
 3782 0310 0000 0312 		.long	.LVL70-.Ltext0
 3783 0314 000C      		.word	0xc
 3784 0316 91        		.byte	0x91
 3785 0317 70        		.sleb128 -16
 3786 0318 06        		.byte	0x6
 3787 0319 33        		.byte	0x33
 3788 031a 24        		.byte	0x24
 3789 031b 03        		.byte	0x3
 3790 031c 0000 0000 		.long	semaphore+4
 3791 0320 22        		.byte	0x22
 3792 0321 9F        		.byte	0x9f
 3793 0322 0000 0000 		.long	0
 3794 0326 0000 0000 		.long	0
 3795               	.LLST19:
 3796 032a 0000 028E 		.long	.LVL56-.Ltext0
 3797 032e 0000 02AA 		.long	.LVL61-.Ltext0
 3798 0332 0001      		.word	0x1
 3799 0334 59        		.byte	0x59
 3800 0335 0000 02AA 		.long	.LVL61-.Ltext0
 3801 0339 0000 02B6 		.long	.LVL62-.Ltext0
 3802 033d 0002      		.word	0x2
 3803 033f 78        		.byte	0x78
 3804 0340 00        		.sleb128 0
 3805 0341 0000 02E0 		.long	.LVL65-.Ltext0
 3806 0345 0000 0312 		.long	.LVL70-.Ltext0
 3807 0349 0001      		.word	0x1
 3808 034b 59        		.byte	0x59
 3809 034c 0000 0000 		.long	0
 3810 0350 0000 0000 		.long	0
 3811               	.LLST20:
 3812 0354 0000 028E 		.long	.LVL56-.Ltext0
 3813 0358 0000 029C 		.long	.LVL57-.Ltext0
 3814 035c 000C      		.word	0xc
 3815 035e 91        		.byte	0x91


 3816 035f 70        		.sleb128 -16
 3817 0360 06        		.byte	0x6
 3818 0361 33        		.byte	0x33
 3819 0362 24        		.byte	0x24
 3820 0363 03        		.byte	0x3
 3821 0364 0000 0000 		.long	semaphore+4
 3822 0368 22        		.byte	0x22
 3823 0369 9F        		.byte	0x9f
 3824 036a 0000 029C 		.long	.LVL57-.Ltext0
 3825 036e 0000 02A0 		.long	.LVL59-.Ltext0
 3826 0372 0001      		.word	0x1
 3827 0374 58        		.byte	0x58
 3828 0375 0000 02A0 		.long	.LVL59-.Ltext0
 3829 0379 0000 02A2 		.long	.LVL60-.Ltext0
 3830 037d 000C      		.word	0xc
 3831 037f 91        		.byte	0x91
 3832 0380 70        		.sleb128 -16
 3833 0381 06        		.byte	0x6
 3834 0382 33        		.byte	0x33
 3835 0383 24        		.byte	0x24
 3836 0384 03        		.byte	0x3
 3837 0385 0000 0000 		.long	semaphore+4
 3838 0389 22        		.byte	0x22
 3839 038a 9F        		.byte	0x9f
 3840 038b 0000 02E0 		.long	.LVL65-.Ltext0
 3841 038f 0000 0312 		.long	.LVL70-.Ltext0
 3842 0393 000C      		.word	0xc
 3843 0395 91        		.byte	0x91
 3844 0396 70        		.sleb128 -16
 3845 0397 06        		.byte	0x6
 3846 0398 33        		.byte	0x33
 3847 0399 24        		.byte	0x24
 3848 039a 03        		.byte	0x3
 3849 039b 0000 0000 		.long	semaphore+4
 3850 039f 22        		.byte	0x22
 3851 03a0 9F        		.byte	0x9f
 3852 03a1 0000 0000 		.long	0
 3853 03a5 0000 0000 		.long	0
 3854               	.LLST21:
 3855 03a9 0000 029E 		.long	.LVL58-.Ltext0
 3856 03ad 0000 02A0 		.long	.LVL59-.Ltext0
 3857 03b1 0001      		.word	0x1
 3858 03b3 50        		.byte	0x50
 3859 03b4 0000 02E0 		.long	.LVL65-.Ltext0
 3860 03b8 0000 02E8 		.long	.LVL66-.Ltext0
 3861 03bc 0001      		.word	0x1
 3862 03be 50        		.byte	0x50
 3863 03bf 0000 02F8 		.long	.LVL67-.Ltext0
 3864 03c3 0000 0300 		.long	.LVL68-.Ltext0
 3865 03c7 0001      		.word	0x1
 3866 03c9 50        		.byte	0x50
 3867 03ca 0000 0300 		.long	.LVL68-.Ltext0
 3868 03ce 0000 0306 		.long	.LVL69-.Ltext0
 3869 03d2 0002      		.word	0x2
 3870 03d4 78        		.byte	0x78
 3871 03d5 00        		.sleb128 0
 3872 03d6 0000 0000 		.long	0


 3873 03da 0000 0000 		.long	0
 3874               	.LLST22:
 3875 03de 0000 02B6 		.long	.LVL62-.Ltext0
 3876 03e2 0000 02D6 		.long	.LVL64-.Ltext0
 3877 03e6 0006      		.word	0x6
 3878 03e8 03        		.byte	0x3
 3879 03e9 0000 0000 		.long	ready
 3880 03ed 9F        		.byte	0x9f
 3881 03ee 0000 0000 		.long	0
 3882 03f2 0000 0000 		.long	0
 3883               	.LLST23:
 3884 03f6 0000 02BC 		.long	.LVL63-.Ltext0
 3885 03fa 0000 02D6 		.long	.LVL64-.Ltext0
 3886 03fe 0001      		.word	0x1
 3887 0400 51        		.byte	0x51
 3888 0401 0000 0000 		.long	0
 3889 0405 0000 0000 		.long	0
 3890               	.LLST24:
 3891 0409 0000 031C 		.long	.LVL73-.Ltext0
 3892 040d 0000 032A 		.long	.LVL74-.Ltext0
 3893 0411 000C      		.word	0xc
 3894 0413 91        		.byte	0x91
 3895 0414 70        		.sleb128 -16
 3896 0415 06        		.byte	0x6
 3897 0416 33        		.byte	0x33
 3898 0417 24        		.byte	0x24
 3899 0418 03        		.byte	0x3
 3900 0419 0000 0000 		.long	semaphore+4
 3901 041d 22        		.byte	0x22
 3902 041e 9F        		.byte	0x9f
 3903 041f 0000 032A 		.long	.LVL74-.Ltext0
 3904 0423 0000 037A 		.long	.LVL81-.Ltext0
 3905 0427 0001      		.word	0x1
 3906 0429 5A        		.byte	0x5a
 3907 042a 0000 037A 		.long	.LVL81-.Ltext0
 3908 042e 0000 037C 		.long	.LVL82-.Ltext0
 3909 0432 000C      		.word	0xc
 3910 0434 91        		.byte	0x91
 3911 0435 70        		.sleb128 -16
 3912 0436 06        		.byte	0x6
 3913 0437 33        		.byte	0x33
 3914 0438 24        		.byte	0x24
 3915 0439 03        		.byte	0x3
 3916 043a 0000 0000 		.long	semaphore+4
 3917 043e 22        		.byte	0x22
 3918 043f 9F        		.byte	0x9f
 3919 0440 0000 037C 		.long	.LVL82-.Ltext0
 3920 0444 0000 0388 		.long	.LVL83-.Ltext0
 3921 0448 0001      		.word	0x1
 3922 044a 5A        		.byte	0x5a
 3923 044b 0000 0388 		.long	.LVL83-.Ltext0
 3924 044f 0000 038A 		.long	.LFE11-.Ltext0
 3925 0453 000C      		.word	0xc
 3926 0455 91        		.byte	0x91
 3927 0456 70        		.sleb128 -16
 3928 0457 06        		.byte	0x6
 3929 0458 33        		.byte	0x33


 3930 0459 24        		.byte	0x24
 3931 045a 03        		.byte	0x3
 3932 045b 0000 0000 		.long	semaphore+4
 3933 045f 22        		.byte	0x22
 3934 0460 9F        		.byte	0x9f
 3935 0461 0000 0000 		.long	0
 3936 0465 0000 0000 		.long	0
 3937               	.LLST25:
 3938 0469 0000 031C 		.long	.LVL73-.Ltext0
 3939 046d 0000 032A 		.long	.LVL74-.Ltext0
 3940 0471 000C      		.word	0xc
 3941 0473 91        		.byte	0x91
 3942 0474 70        		.sleb128 -16
 3943 0475 06        		.byte	0x6
 3944 0476 33        		.byte	0x33
 3945 0477 24        		.byte	0x24
 3946 0478 03        		.byte	0x3
 3947 0479 0000 0000 		.long	semaphore+4
 3948 047d 22        		.byte	0x22
 3949 047e 9F        		.byte	0x9f
 3950 047f 0000 032A 		.long	.LVL74-.Ltext0
 3951 0483 0000 0344 		.long	.LVL76-.Ltext0
 3952 0487 0001      		.word	0x1
 3953 0489 5A        		.byte	0x5a
 3954 048a 0000 0000 		.long	0
 3955 048e 0000 0000 		.long	0
 3956               	.LLST26:
 3957 0492 0000 032C 		.long	.LVL75-.Ltext0
 3958 0496 0000 0344 		.long	.LVL76-.Ltext0
 3959 049a 0001      		.word	0x1
 3960 049c 59        		.byte	0x59
 3961 049d 0000 0000 		.long	0
 3962 04a1 0000 0000 		.long	0
 3963               	.LLST27:
 3964 04a5 0000 0344 		.long	.LVL76-.Ltext0
 3965 04a9 0000 0376 		.long	.LVL80-.Ltext0
 3966 04ad 0006      		.word	0x6
 3967 04af 03        		.byte	0x3
 3968 04b0 0000 0000 		.long	ready
 3969 04b4 9F        		.byte	0x9f
 3970 04b5 0000 037C 		.long	.LVL82-.Ltext0
 3971 04b9 0000 038A 		.long	.LFE11-.Ltext0
 3972 04bd 0006      		.word	0x6
 3973 04bf 03        		.byte	0x3
 3974 04c0 0000 0000 		.long	ready
 3975 04c4 9F        		.byte	0x9f
 3976 04c5 0000 0000 		.long	0
 3977 04c9 0000 0000 		.long	0
 3978               	.LLST28:
 3979 04cd 0000 034A 		.long	.LVL77-.Ltext0
 3980 04d1 0000 0354 		.long	.LVL79-.Ltext0
 3981 04d5 0001      		.word	0x1
 3982 04d7 50        		.byte	0x50
 3983 04d8 0000 037C 		.long	.LVL82-.Ltext0
 3984 04dc 0000 038A 		.long	.LFE11-.Ltext0
 3985 04e0 0001      		.word	0x1
 3986 04e2 50        		.byte	0x50


 3987 04e3 0000 0000 		.long	0
 3988 04e7 0000 0000 		.long	0
 3989               	.LLST29:
 3990 04eb 0000 03DC 		.long	.LVL88-.Ltext0
 3991 04ef 0000 03F4 		.long	.LVL89-.Ltext0
 3992 04f3 0001      		.word	0x1
 3993 04f5 52        		.byte	0x52
 3994 04f6 0000 0000 		.long	0
 3995 04fa 0000 0000 		.long	0
 3996               	.LLST30:
 3997 04fe 0000 03FA 		.long	.LVL90-.Ltext0
 3998 0502 0000 0404 		.long	.LVL92-.Ltext0
 3999 0506 0001      		.word	0x1
 4000 0508 50        		.byte	0x50
 4001 0509 0000 042E 		.long	.LVL93-.Ltext0
 4002 050d 0000 043C 		.long	.LFE13-.Ltext0
 4003 0511 0001      		.word	0x1
 4004 0513 50        		.byte	0x50
 4005 0514 0000 0000 		.long	0
 4006 0518 0000 0000 		.long	0
 4007               		.section	.debug_aranges,"",@progbits
 4008 0000 0000 001C 		.long	0x1c
 4009 0004 0002      		.word	0x2
 4010 0006 0000 0000 		.long	.Ldebug_info0
 4011 000a 04        		.byte	0x4
 4012 000b 00        		.byte	0
 4013 000c 0000      		.word	0
 4014 000e 0000      		.word	0
 4015 0010 0000 0000 		.long	.Ltext0
 4016 0014 0000 043C 		.long	.Letext0-.Ltext0
 4017 0018 0000 0000 		.long	0
 4018 001c 0000 0000 		.long	0
 4019               		.section	.debug_ranges,"",@progbits
 4020               	.Ldebug_ranges0:
 4021 0000 0000 00B8 		.long	.LBB29-.Ltext0
 4022 0004 0000 00E2 		.long	.LBE29-.Ltext0
 4023 0008 0000 0154 		.long	.LBB37-.Ltext0
 4024 000c 0000 017E 		.long	.LBE37-.Ltext0
 4025 0010 0000 0000 		.long	0
 4026 0014 0000 0000 		.long	0
 4027 0018 0000 00E2 		.long	.LBB32-.Ltext0
 4028 001c 0000 0114 		.long	.LBE32-.Ltext0
 4029 0020 0000 011A 		.long	.LBB36-.Ltext0
 4030 0024 0000 0124 		.long	.LBE36-.Ltext0
 4031 0028 0000 017E 		.long	.LBB38-.Ltext0
 4032 002c 0000 018A 		.long	.LBE38-.Ltext0
 4033 0030 0000 0000 		.long	0
 4034 0034 0000 0000 		.long	0
 4035 0038 0000 028E 		.long	.LBB43-.Ltext0
 4036 003c 0000 02B6 		.long	.LBE43-.Ltext0
 4037 0040 0000 02E0 		.long	.LBB50-.Ltext0
 4038 0044 0000 0312 		.long	.LBE50-.Ltext0
 4039 0048 0000 0000 		.long	0
 4040 004c 0000 0000 		.long	0
 4041 0050 0000 0344 		.long	.LBB53-.Ltext0
 4042 0054 0000 0376 		.long	.LBE53-.Ltext0
 4043 0058 0000 037C 		.long	.LBB56-.Ltext0


 4044 005c 0000 0384 		.long	.LBE56-.Ltext0
 4045 0060 0000 0000 		.long	0
 4046 0064 0000 0000 		.long	0
 4047 0068 0000 03D2 		.long	.LBB57-.Ltext0
 4048 006c 0000 0428 		.long	.LBE57-.Ltext0
 4049 0070 0000 042E 		.long	.LBB66-.Ltext0
 4050 0074 0000 0436 		.long	.LBE66-.Ltext0
 4051 0078 0000 0000 		.long	0
 4052 007c 0000 0000 		.long	0
 4053 0080 0000 03F4 		.long	.LBB61-.Ltext0
 4054 0084 0000 0428 		.long	.LBE61-.Ltext0
 4055 0088 0000 042E 		.long	.LBB64-.Ltext0
 4056 008c 0000 0436 		.long	.LBE64-.Ltext0
 4057 0090 0000 0000 		.long	0
 4058 0094 0000 0000 		.long	0
 4059               		.section	.debug_line,"",@progbits
 4060               	.Ldebug_line0:
 4061 0000 0000 017F 		.section	.debug_str,"MS",@progbits,1
 4061      0002 0000 
 4061      00A0 0201 
 4061      FB0E 0D00 
 4061      0101 0101 
 4062               	.LASF54:
 4063 0000 5F64 736F 		.string	"_dso_handle"
 4063      5F68 616E 
 4063      646C 6500 
 4064               	.LASF0:
 4065 000c 636F 756E 		.string	"count"
 4065      7400 
 4066               	.LASF118:
 4067 0012 5F6D 6274 		.string	"_mbtowc_state"
 4067      6F77 635F 
 4067      7374 6174 
 4067      6500 
 4068               	.LASF62:
 4069 0020 5F73 697A 		.string	"_size"
 4069      6500 
 4070               	.LASF166:
 4071 0026 7363 6865 		.string	"sched"
 4071      6400 
 4072               	.LASF106:
 4073 002c 5F72 616E 		.string	"_rand48"
 4073      6434 3800 
 4074               	.LASF86:
 4075 0034 5F65 6D65 		.string	"_emergency"
 4075      7267 656E 
 4075      6379 00
 4076               	.LASF133:
 4077 003f 6865 6164 		.string	"head_task_id"
 4077      5F74 6173 
 4077      6B5F 6964 
 4077      00
 4078               	.LASF137:
 4079 004c 7373 7032 		.string	"ssp2"
 4079      00
 4080               	.LASF157:
 4081 0051 7374 6163 		.string	"stacks"


 4081      6B73 00
 4082               	.LASF134:
 4083 0058 7265 6D6F 		.string	"removeq"
 4083      7665 7100 
 4084               	.LASF76:
 4085 0060 5F64 6174 		.string	"_data"
 4085      6100 
 4086               	.LASF126:
 4087 0066 5F77 6372 		.string	"_wcrtomb_state"
 4087      746F 6D62 
 4087      5F73 7461 
 4087      7465 00
 4088               	.LASF145:
 4089 0075 7365 745F 		.string	"set_task"
 4089      7461 736B 
 4089      00
 4090               	.LASF127:
 4091 007e 5F77 6373 		.string	"_wcsrtombs_state"
 4091      7274 6F6D 
 4091      6273 5F73 
 4091      7461 7465 
 4091      00
 4092               	.LASF22:
 4093 008f 6C6F 6E67 		.string	"long long unsigned int"
 4093      206C 6F6E 
 4093      6720 756E 
 4093      7369 676E 
 4093      6564 2069 
 4094               	.LASF144:
 4095 00a6 696E 6974 		.string	"init_kernel"
 4095      5F6B 6572 
 4095      6E65 6C00 
 4096               	.LASF66:
 4097 00b2 5F6C 6266 		.string	"_lbfsize"
 4097      7369 7A65 
 4097      00
 4098               	.LASF165:
 4099 00bb 5F5F 6C6F 		.string	"__locale_t"
 4099      6361 6C65 
 4099      5F74 00
 4100               	.LASF159:
 4101 00c6 696E 6974 		.string	"init_timer"
 4101      5F74 696D 
 4101      6572 00
 4102               	.LASF153:
 4103 00d1 6E65 7874 		.string	"next_task"
 4103      5F74 6173 
 4103      6B00 
 4104               	.LASF124:
 4105 00db 5F6D 6272 		.string	"_mbrtowc_state"
 4105      746F 7763 
 4105      5F73 7461 
 4105      7465 00
 4106               	.LASF8:
 4107 00ea 6E65 7874 		.string	"next"
 4107      00
 4108               	.LASF119:


 4109 00ef 5F77 6374 		.string	"_wctomb_state"
 4109      6F6D 625F 
 4109      7374 6174 
 4109      6500 
 4110               	.LASF43:
 4111 00fd 5F5F 746D 		.string	"__tm_sec"
 4111      5F73 6563 
 4111      00
 4112               	.LASF21:
 4113 0106 6C6F 6E67 		.string	"long long int"
 4113      206C 6F6E 
 4113      6720 696E 
 4113      7400 
 4114               	.LASF15:
 4115 0114 7369 676E 		.string	"signed char"
 4115      6564 2063 
 4115      6861 7200 
 4116               	.LASF108:
 4117 0120 5F6D 756C 		.string	"_mult"
 4117      7400 
 4118               	.LASF72:
 4119 0126 5F75 6275 		.string	"_ubuf"
 4119      6600 
 4120               	.LASF136:
 4121 012c 7373 7031 		.string	"ssp1"
 4121      00
 4122               	.LASF61:
 4123 0131 5F62 6173 		.string	"_base"
 4123      6500 
 4124               	.LASF45:
 4125 0137 5F5F 746D 		.string	"__tm_hour"
 4125      5F68 6F75 
 4125      7200 
 4126               	.LASF101:
 4127 0141 5F5F 7366 		.string	"__sf"
 4127      00
 4128               	.LASF52:
 4129 0146 5F6F 6E5F 		.string	"_on_exit_args"
 4129      6578 6974 
 4129      5F61 7267 
 4129      7300 
 4130               	.LASF132:
 4131 0154 7461 736B 		.string	"task_id"
 4131      5F69 6400 
 4132               	.LASF67:
 4133 015c 5F63 6F6F 		.string	"_cookie"
 4133      6B69 6500 
 4134               	.LASF100:
 4135 0164 5F5F 7367 		.string	"__sglue"
 4135      6C75 6500 
 4136               	.LASF148:
 4137 016c 6865 6164 		.string	"head_q"
 4137      5F71 00
 4138               	.LASF19:
 4139 0173 6C6F 6E67 		.string	"long int"
 4139      2069 6E74 
 4139      00


 4140               	.LASF163:
 4141 017c 6D74 6B5F 		.string	"mtk_c.c"
 4141      632E 6300 
 4142               	.LASF64:
 4143 0184 5F66 6C61 		.string	"_flags"
 4143      6773 00
 4144               	.LASF11:
 4145 018b 7373 7461 		.string	"sstack"
 4145      636B 00
 4146               	.LASF82:
 4147 0192 5F73 7464 		.string	"_stdin"
 4147      696E 00
 4148               	.LASF10:
 4149 0199 7573 7461 		.string	"ustack"
 4149      636B 00
 4150               	.LASF74:
 4151 01a0 5F62 6C6B 		.string	"_blksize"
 4151      7369 7A65 
 4151      00
 4152               	.LASF96:
 4153 01a9 5F63 7674 		.string	"_cvtbuf"
 4153      6275 6600 
 4154               	.LASF75:
 4155 01b1 5F6F 6666 		.string	"_offset"
 4155      7365 7400 
 4156               	.LASF125:
 4157 01b9 5F6D 6273 		.string	"_mbsrtowcs_state"
 4157      7274 6F77 
 4157      6373 5F73 
 4157      7461 7465 
 4157      00
 4158               	.LASF123:
 4159 01ca 5F6D 6272 		.string	"_mbrlen_state"
 4159      6C65 6E5F 
 4159      7374 6174 
 4159      6500 
 4160               	.LASF53:
 4161 01d8 5F66 6E61 		.string	"_fnargs"
 4161      7267 7300 
 4162               	.LASF142:
 4163 01e0 6865 6164 		.string	"head_sem"
 4163      5F73 656D 
 4163      00
 4164               	.LASF162:
 4165 01e9 474E 5520 		.string	"GNU C11 5.5.0 -mcpu=68000 -msoft-float -g -O2 -fomit-frame-pointer"
 4165      4331 3120 
 4165      352E 352E 
 4165      3020 2D6D 
 4165      6370 753D 
 4166               	.LASF59:
 4167 022c 5F66 6E73 		.string	"_fns"
 4167      00
 4168               	.LASF39:
 4169 0231 5F73 6967 		.string	"_sign"
 4169      6E00 
 4170               	.LASF35:
 4171 0237 5F66 6C6F 		.string	"_flock_t"


 4171      636B 5F74 
 4171      00
 4172               	.LASF84:
 4173 0240 5F73 7464 		.string	"_stderr"
 4173      6572 7200 
 4174               	.LASF41:
 4175 0248 5F42 6967 		.string	"_Bigint"
 4175      696E 7400 
 4176               	.LASF114:
 4177 0250 5F67 616D 		.string	"_gamma_signgam"
 4177      6D61 5F73 
 4177      6967 6E67 
 4177      616D 00
 4178               	.LASF68:
 4179 025f 5F72 6561 		.string	"_read"
 4179      6400 
 4180               	.LASF92:
 4181 0265 5F72 6573 		.string	"_result_k"
 4181      756C 745F 
 4181      6B00 
 4182               	.LASF42:
 4183 026f 5F5F 746D 		.string	"__tm"
 4183      00
 4184               	.LASF1:
 4185 0274 7461 736B 		.string	"task_list"
 4185      5F6C 6973 
 4185      7400 
 4186               	.LASF140:
 4187 027e 7761 6B65 		.string	"wakeup"
 4187      7570 00
 4188               	.LASF31:
 4189 0285 5F5F 7763 		.string	"__wchb"
 4189      6862 00
 4190               	.LASF83:
 4191 028c 5F73 7464 		.string	"_stdout"
 4191      6F75 7400 
 4192               	.LASF95:
 4193 0294 5F63 7674 		.string	"_cvtlen"
 4193      6C65 6E00 
 4194               	.LASF151:
 4195 029c 6375 7272 		.string	"curr_task"
 4195      5F74 6173 
 4195      6B00 
 4196               	.LASF20:
 4197 02a6 6C6F 6E67 		.string	"long unsigned int"
 4197      2075 6E73 
 4197      6967 6E65 
 4197      6420 696E 
 4197      7400 
 4198               	.LASF65:
 4199 02b8 5F66 696C 		.string	"_file"
 4199      6500 
 4200               	.LASF104:
 4201 02be 5F6E 696F 		.string	"_niobs"
 4201      6273 00
 4202               	.LASF138:
 4203 02c5 6261 636B 		.string	"back"


 4203      00
 4204               	.LASF18:
 4205 02ca 7368 6F72 		.string	"short unsigned int"
 4205      7420 756E 
 4205      7369 676E 
 4205      6564 2069 
 4205      6E74 00
 4206               	.LASF147:
 4207 02dd 736C 6565 		.string	"sleep"
 4207      7000 
 4208               	.LASF98:
 4209 02e3 5F61 7465 		.string	"_atexit0"
 4209      7869 7430 
 4209      00
 4210               	.LASF2:
 4211 02ec 5441 534B 		.string	"TASK_ID_TYPE"
 4211      5F49 445F 
 4211      5459 5045 
 4211      00
 4212               	.LASF121:
 4213 02f9 5F73 6967 		.string	"_signal_buf"
 4213      6E61 6C5F 
 4213      6275 6600 
 4214               	.LASF112:
 4215 0305 5F61 7363 		.string	"_asctime_buf"
 4215      7469 6D65 
 4215      5F62 7566 
 4215      00
 4216               	.LASF91:
 4217 0312 5F72 6573 		.string	"_result"
 4217      756C 7400 
 4218               	.LASF30:
 4219 031a 5F5F 7763 		.string	"__wch"
 4219      6800 
 4220               	.LASF5:
 4221 0320 7374 6163 		.string	"stack_ptr"
 4221      6B5F 7074 
 4221      7200 
 4222               	.LASF6:
 4223 032a 7072 696F 		.string	"priority"
 4223      7269 7479 
 4223      00
 4224               	.LASF28:
 4225 0333 7769 6E74 		.string	"wint_t"
 4225      5F74 00
 4226               	.LASF161:
 4227 033a 7377 7463 		.string	"swtch"
 4227      6800 
 4228               	.LASF77:
 4229 0340 5F6C 6F63 		.string	"_lock"
 4229      6B00 
 4230               	.LASF135:
 4231 0346 696E 6974 		.string	"init_stack"
 4231      5F73 7461 
 4231      636B 00
 4232               	.LASF79:
 4233 0351 5F66 6C61 		.string	"_flags2"


 4233      6773 3200 
 4234               	.LASF4:
 4235 0359 7461 736B 		.string	"task_addr"
 4235      5F61 6464 
 4235      7200 
 4236               	.LASF69:
 4237 0363 5F77 7269 		.string	"_write"
 4237      7465 00
 4238               	.LASF48:
 4239 036a 5F5F 746D 		.string	"__tm_year"
 4239      5F79 6561 
 4239      7200 
 4240               	.LASF130:
 4241 0374 5F6E 6D61 		.string	"_nmalloc"
 4241      6C6C 6F63 
 4241      00
 4242               	.LASF9:
 4243 037d 5443 425F 		.string	"TCB_TYPE"
 4243      5459 5045 
 4243      00
 4244               	.LASF12:
 4245 0386 7369 7A65 		.string	"sizetype"
 4245      7479 7065 
 4245      00
 4246               	.LASF23:
 4247 038f 6C6F 6E67 		.string	"long double"
 4247      2064 6F75 
 4247      626C 6500 
 4248               	.LASF129:
 4249 039b 5F6E 6578 		.string	"_nextf"
 4249      7466 00
 4250               	.LASF47:
 4251 03a2 5F5F 746D 		.string	"__tm_mon"
 4251      5F6D 6F6E 
 4251      00
 4252               	.LASF57:
 4253 03ab 5F61 7465 		.string	"_atexit"
 4253      7869 7400 
 4254               	.LASF89:
 4255 03b3 5F5F 7364 		.string	"__sdidinit"
 4255      6964 696E 
 4255      6974 00
 4256               	.LASF25:
 4257 03be 5F6F 6666 		.string	"_off_t"
 4257      5F74 00
 4258               	.LASF149:
 4259 03c5 705F 626F 		.string	"p_body"
 4259      6479 00
 4260               	.LASF94:
 4261 03cc 5F66 7265 		.string	"_freelist"
 4261      656C 6973 
 4261      7400 
 4262               	.LASF24:
 4263 03d6 5F4C 4F43 		.string	"_LOCK_RECURSIVE_T"
 4263      4B5F 5245 
 4263      4355 5253 
 4263      4956 455F 


 4263      5400 
 4264               	.LASF146:
 4265 03e8 6265 6769 		.string	"begin_sch"
 4265      6E5F 7363 
 4265      6800 
 4266               	.LASF139:
 4267 03f2 6164 6471 		.string	"addq"
 4267      00
 4268               	.LASF155:
 4269 03f7 7365 6D61 		.string	"semaphore"
 4269      7068 6F72 
 4269      6500 
 4270               	.LASF16:
 4271 0401 756E 7369 		.string	"unsigned char"
 4271      676E 6564 
 4271      2063 6861 
 4271      7200 
 4272               	.LASF97:
 4273 040f 5F6E 6577 		.string	"_new"
 4273      00
 4274               	.LASF128:
 4275 0414 5F68 5F65 		.string	"_h_errno"
 4275      7272 6E6F 
 4275      00
 4276               	.LASF17:
 4277 041d 7368 6F72 		.string	"short int"
 4277      7420 696E 
 4277      7400 
 4278               	.LASF50:
 4279 0427 5F5F 746D 		.string	"__tm_yday"
 4279      5F79 6461 
 4279      7900 
 4280               	.LASF60:
 4281 0431 5F5F 7362 		.string	"__sbuf"
 4281      7566 00
 4282               	.LASF105:
 4283 0438 5F69 6F62 		.string	"_iobs"
 4283      7300 
 4284               	.LASF102:
 4285 043e 5F5F 4649 		.string	"__FILE"
 4285      4C45 00
 4286               	.LASF34:
 4287 0445 5F6D 6273 		.string	"_mbstate_t"
 4287      7461 7465 
 4287      5F74 00
 4288               	.LASF63:
 4289 0450 5F5F 7346 		.string	"__sFILE"
 4289      494C 4500 
 4290               	.LASF78:
 4291 0458 5F6D 6273 		.string	"_mbstate"
 4291      7461 7465 
 4291      00
 4292               	.LASF115:
 4293 0461 5F72 616E 		.string	"_rand_next"
 4293      645F 6E65 
 4293      7874 00
 4294               	.LASF117:


 4295 046c 5F6D 626C 		.string	"_mblen_state"
 4295      656E 5F73 
 4295      7461 7465 
 4295      00
 4296               	.LASF85:
 4297 0479 5F69 6E63 		.string	"_inc"
 4297      00
 4298               	.LASF58:
 4299 047e 5F69 6E64 		.string	"_ind"
 4299      00
 4300               	.LASF154:
 4301 0483 7265 6164 		.string	"ready"
 4301      7900 
 4302               	.LASF88:
 4303 0489 5F6C 6F63 		.string	"_locale"
 4303      616C 6500 
 4304               	.LASF90:
 4305 0491 5F5F 636C 		.string	"__cleanup"
 4305      6561 6E75 
 4305      7000 
 4306               	.LASF87:
 4307 049b 5F75 6E73 		.string	"_unspecified_locale_info"
 4307      7065 6369 
 4307      6669 6564 
 4307      5F6C 6F63 
 4307      616C 655F 
 4308               	.LASF38:
 4309 04b4 5F6D 6178 		.string	"_maxwds"
 4309      7764 7300 
 4310               	.LASF80:
 4311 04bc 5F72 6565 		.string	"_reent"
 4311      6E74 00
 4312               	.LASF107:
 4313 04c3 5F73 6565 		.string	"_seed"
 4313      6400 
 4314               	.LASF32:
 4315 04c9 5F5F 636F 		.string	"__count"
 4315      756E 7400 
 4316               	.LASF33:
 4317 04d1 5F5F 7661 		.string	"__value"
 4317      6C75 6500 
 4318               	.LASF70:
 4319 04d9 5F73 6565 		.string	"_seek"
 4319      6B00 
 4320               	.LASF158:
 4321 04df 5F69 6D70 		.string	"_impure_ptr"
 4321      7572 655F 
 4321      7074 7200 
 4322               	.LASF26:
 4323 04eb 5F66 706F 		.string	"_fpos_t"
 4323      735F 7400 
 4324               	.LASF81:
 4325 04f3 5F65 7272 		.string	"_errno"
 4325      6E6F 00
 4326               	.LASF13:
 4327 04fa 6368 6172 		.string	"char"
 4327      00


 4328               	.LASF44:
 4329 04ff 5F5F 746D 		.string	"__tm_min"
 4329      5F6D 696E 
 4329      00
 4330               	.LASF29:
 4331 0508 756E 7369 		.string	"unsigned int"
 4331      676E 6564 
 4331      2069 6E74 
 4331      00
 4332               	.LASF156:
 4333 0515 7461 736B 		.string	"task_tab"
 4333      5F74 6162 
 4333      00
 4334               	.LASF56:
 4335 051e 5F69 735F 		.string	"_is_cxa"
 4335      6378 6100 
 4336               	.LASF14:
 4337 0526 5354 4143 		.string	"STACK_TYPE"
 4337      4B5F 5459 
 4337      5045 00
 4338               	.LASF37:
 4339 0531 5F6E 6578 		.string	"_next"
 4339      7400 
 4340               	.LASF111:
 4341 0537 5F73 7472 		.string	"_strtok_last"
 4341      746F 6B5F 
 4341      6C61 7374 
 4341      00
 4342               	.LASF164:
 4343 0544 2F68 6F6D 		.string	"/home/students/3506262308/mtk3"
 4343      652F 7374 
 4343      7564 656E 
 4343      7473 2F33 
 4343      3530 3632 
 4344               	.LASF55:
 4345 0563 5F66 6E74 		.string	"_fntypes"
 4345      7970 6573 
 4345      00
 4346               	.LASF109:
 4347 056c 5F61 6464 		.string	"_add"
 4347      00
 4348               	.LASF36:
 4349 0571 5F5F 554C 		.string	"__ULong"
 4349      6F6E 6700 
 4350               	.LASF122:
 4351 0579 5F67 6574 		.string	"_getdate_err"
 4351      6461 7465 
 4351      5F65 7272 
 4351      00
 4352               	.LASF143:
 4353 0586 6865 6164 		.string	"head_task"
 4353      5F74 6173 
 4353      6B00 
 4354               	.LASF110:
 4355 0590 5F75 6E75 		.string	"_unused_rand"
 4355      7365 645F 
 4355      7261 6E64 


 4355      00
 4356               	.LASF7:
 4357 059d 7374 6174 		.string	"status"
 4357      7573 00
 4358               	.LASF40:
 4359 05a4 5F77 6473 		.string	"_wds"
 4359      00
 4360               	.LASF49:
 4361 05a9 5F5F 746D 		.string	"__tm_wday"
 4361      5F77 6461 
 4361      7900 
 4362               	.LASF103:
 4363 05b3 5F67 6C75 		.string	"_glue"
 4363      6500 
 4364               	.LASF27:
 4365 05b9 5F73 7369 		.string	"_ssize_t"
 4365      7A65 5F74 
 4365      00
 4366               	.LASF120:
 4367 05c2 5F6C 3634 		.string	"_l64a_buf"
 4367      615F 6275 
 4367      6600 
 4368               	.LASF99:
 4369 05cc 5F73 6967 		.string	"_sig_func"
 4369      5F66 756E 
 4369      6300 
 4370               	.LASF150:
 4371 05d6 765F 626F 		.string	"v_body"
 4371      6479 00
 4372               	.LASF141:
 4373 05dd 735F 6964 		.string	"s_id"
 4373      00
 4374               	.LASF73:
 4375 05e2 5F6E 6275 		.string	"_nbuf"
 4375      6600 
 4376               	.LASF131:
 4377 05e8 5F75 6E75 		.string	"_unused"
 4377      7365 6400 
 4378               	.LASF51:
 4379 05f0 5F5F 746D 		.string	"__tm_isdst"
 4379      5F69 7364 
 4379      7374 00
 4380               	.LASF113:
 4381 05fb 5F6C 6F63 		.string	"_localtime_buf"
 4381      616C 7469 
 4381      6D65 5F62 
 4381      7566 00
 4382               	.LASF71:
 4383 060a 5F63 6C6F 		.string	"_close"
 4383      7365 00
 4384               	.LASF116:
 4385 0611 5F72 3438 		.string	"_r48"
 4385      00
 4386               	.LASF160:
 4387 0616 6669 7273 		.string	"first_task"
 4387      745F 7461 
 4387      736B 00


 4388               	.LASF152:
 4389 0621 6E65 775F 		.string	"new_task"
 4389      7461 736B 
 4389      00
 4390               	.LASF3:
 4391 062a 5345 4D41 		.string	"SEMAPHORE_TYPE"
 4391      5048 4F52 
 4391      455F 5459 
 4391      5045 00
 4392               	.LASF93:
 4393 0639 5F70 3573 		.string	"_p5s"
 4393      00
 4394               	.LASF46:
 4395 063e 5F5F 746D 		.string	"__tm_mday"
 4395      5F6D 6461 
 4395      7900 
 4396               		.ident	"GCC: (GNU) 5.5.0"




   1               	.global outbyte
   2               	
   3               	.section .text
   4               	.even
   5               	*******************************
   6               	** outbyte
   7               	** 引数：
   8               	**       char型のデータ(スタックに格納済)
   9               	** 出力：
  10               	**       シリアルポート0に出力
  11               	*******************************
  12               	outbyte:
  13 0000 48E7 F000 			movem.l %d0-%d3, -(%sp)
  14               	out_byte_loop:	
  15 0004 203C 0000 			move.l #SYSCALL_NUM_PUTSTRING, %d0 | PUTSTRINGを指定
  15      0002 
  16 000a 222F 0014 			move.l 20(%sp), %d1  | ch   = 0 or 1
  17 000e 240F      			move.l %sp, %d2      | data = char[1]
  18 0010 0682 0000 			add.l  #27, %d2
  18      001B 
  19 0016 7601      			move.l #1, %d3       | size = 1
  20 0018 4E40      			trap   #0
  21 001a 0C80 0000 			cmpi.l #1, %d0       | PUTSTRINGの返り値が送信数と一致するか確認
  21      0001 
  22 0020 6600 FFE2 			bne    out_byte_loop | 一致しなければ再送信
  23 0024 4CDF 000F 			movem.l (%sp)+, %d0-%d3
  24 0028 4E75      			rts
  25               	
  26               	.equ SYSCALL_NUM_PUTSTRING,    2
  27               	




   1               	#NO_APP
   2               		.file	"test2.c"
   3               		.text
   4               	.Ltext0:
   5               		.cfi_sections	.debug_frame
   6               		.section	.rodata.str1.1,"aMS",@progbits,1
   7               	.LC0:
   8 0000 636F 756E 		.string	"count[p] %d\n"
   8      745B 705D 
   8      2025 640A 
   8      00
   9               	.LC1:
  10 000d 2564 2028 		.string	"%d (1)"
  10      3129 00
  11               	.LC2:
  12 0014 0A25 6400 		.string	"\n%d"
  13               	.LC3:
  14 0018 656E 6431 		.string	"end1 "
  14      2000 
  15               		.text
  16               		.align	2
  17               		.globl	task1
  18               		.type	task1, @function
  19               	task1:
  20               	.LFB4:
  21               		.file 1 "test2.c"
   1:test2.c       **** #include <stdio.h>
   2:test2.c       **** #include "mtk_c.h"
   3:test2.c       **** FILE* com0in;
   4:test2.c       **** FILE* com0out;
   5:test2.c       **** FILE* com1in;
   6:test2.c       **** FILE* com1out;
   7:test2.c       **** 
   8:test2.c       **** void init_file(){
   9:test2.c       ****    
  10:test2.c       **** 
  11:test2.c       ****    com0in = fdopen(3, "r");
  12:test2.c       ****    com0out = fdopen(3, "w");
  13:test2.c       ****    com1in = fdopen(4, "r");
  14:test2.c       ****    com1out = fdopen(4, "w");
  15:test2.c       **** }
  16:test2.c       **** 
  17:test2.c       **** void task1(){ 
  22               		.loc 1 17 0
  23               		.cfi_startproc
  24 0000 2F0B      		move.l %a3,-(%sp)
  25               		.cfi_def_cfa_offset 8
  26               		.cfi_offset 11, -8
  27 0002 2F0A      		move.l %a2,-(%sp)
  28               		.cfi_def_cfa_offset 12
  29               		.cfi_offset 10, -12
  30               	.LVL0:
  18:test2.c       ****     int i = 1;
  19:test2.c       ****     int a = 0;
  20:test2.c       ****     P(0);
  31               		.loc 1 20 0
  32 0004 42A7      		clr.l -(%sp)


  33               		.cfi_def_cfa_offset 16
  34 0006 4EB9 0000 		jsr P
  34      0000 
  35               	.LVL1:
  21:test2.c       ****     fprintf(com1in, "count[p] %d\n", semaphore[0].count);
  36               		.loc 1 21 0
  37 000c 2F39 0000 		move.l semaphore,-(%sp)
  37      0000 
  38               		.cfi_def_cfa_offset 20
  39 0012 4879 0000 		pea .LC0
  39      0000 
  40               		.cfi_def_cfa_offset 24
  41 0018 2F39 0000 		move.l com1in,-(%sp)
  41      0000 
  42               		.cfi_def_cfa_offset 28
  43 001e 47F9 0000 		lea fprintf,%a3
  43      0000 
  44 0024 4E93      		jsr (%a3)
  45               	.LVL2:
  46 0026 4FEF 0010 		lea (16,%sp),%sp
  47               		.cfi_def_cfa_offset 12
  18:test2.c       ****     int i = 1;
  48               		.loc 1 18 0
  49 002a 347C 0001 		move.w #1,%a2
  50               	.LVL3:
  51               	.L2:
  22:test2.c       ****     while(1){
  23:test2.c       ****         //printf("task1: %d\n", i/*semaphore[0].count*/);
  24:test2.c       ****         fprintf(com1in, "\%d (1)", i);
  52               		.loc 1 24 0
  53 002e 2F0A      		move.l %a2,-(%sp)
  54               		.cfi_def_cfa_offset 16
  55 0030 4879 0000 		pea .LC1
  55      0000 
  56               		.cfi_def_cfa_offset 20
  57 0036 2F39 0000 		move.l com1in,-(%sp)
  57      0000 
  58               		.cfi_def_cfa_offset 24
  59 003c 4E93      		jsr (%a3)
  60               	.LVL4:
  25:test2.c       ****         i++;
  61               		.loc 1 25 0
  62 003e 528A      		addq.l #1,%a2
  63               	.LVL5:
  26:test2.c       ****         if (i == 2000){
  64               		.loc 1 26 0
  65 0040 4FEF 000C 		lea (12,%sp),%sp
  66               		.cfi_def_cfa_offset 12
  67 0044 B4FC 07D0 		cmp.w #2000,%a2
  68 0048 66E4      		jne .L2
  27:test2.c       ****         for (int k=0; k < 400000000; k++);
  28:test2.c       ****         break;
  29:test2.c       **** };
  30:test2.c       ****     }
  31:test2.c       ****     V(0);
  69               		.loc 1 31 0
  70 004a 42A7      		clr.l -(%sp)


  71               		.cfi_def_cfa_offset 16
  72 004c 4EB9 0000 		jsr V
  72      0000 
  73               	.LVL6:
  32:test2.c       ****     fprintf(com1in, "\n%d",semaphore[0].task_list );
  74               		.loc 1 32 0
  75 0052 2F39 0000 		move.l semaphore+4,-(%sp)
  75      0000 
  76               		.cfi_def_cfa_offset 20
  77 0058 4879 0000 		pea .LC2
  77      0000 
  78               		.cfi_def_cfa_offset 24
  79 005e 2F39 0000 		move.l com1in,-(%sp)
  79      0000 
  80               		.cfi_def_cfa_offset 28
  81 0064 4EB9 0000 		jsr fprintf
  81      0000 
  82               	.LVL7:
  83 006a 4FEF 0010 		lea (16,%sp),%sp
  84               		.cfi_def_cfa_offset 12
  85 006e 45F9 0000 		lea fwrite,%a2
  85      0000 
  86               	.LVL8:
  87               	.L3:
  33:test2.c       ****     while(1) {fprintf(com1in, "end1 ");
  88               		.loc 1 33 0 discriminator 1
  89 0074 2F39 0000 		move.l com1in,-(%sp)
  89      0000 
  90               		.cfi_def_cfa_offset 16
  91 007a 4878 0005 		pea 5.w
  92               		.cfi_def_cfa_offset 20
  93 007e 4878 0001 		pea 1.w
  94               		.cfi_def_cfa_offset 24
  95 0082 4879 0000 		pea .LC3
  95      0000 
  96               		.cfi_def_cfa_offset 28
  97 0088 4E92      		jsr (%a2)
  98               	.LVL9:
  99 008a 4FEF 0010 		lea (16,%sp),%sp
 100               		.cfi_def_cfa_offset 12
 101 008e 2F39 0000 		move.l com1in,-(%sp)
 101      0000 
 102               		.cfi_def_cfa_offset 16
 103 0094 4878 0005 		pea 5.w
 104               		.cfi_def_cfa_offset 20
 105 0098 4878 0001 		pea 1.w
 106               		.cfi_def_cfa_offset 24
 107 009c 4879 0000 		pea .LC3
 107      0000 
 108               		.cfi_def_cfa_offset 28
 109 00a2 4E92      		jsr (%a2)
 110               	.LVL10:
 111 00a4 4FEF 0010 		lea (16,%sp),%sp
 112               		.cfi_def_cfa_offset 12
 113 00a8 60CA      		jra .L3
 114               		.cfi_endproc
 115               	.LFE4:


 116               		.size	task1, .-task1
 117               		.section	.rodata.str1.1
 118               	.LC4:
 119 001e 0A74 6173 		.string	"\ntask2 change"
 119      6B32 2063 
 119      6861 6E67 
 119      6500 
 120               	.LC5:
 121 002c 0A63 636F 		.string	"\nccount[p] %d\n"
 121      756E 745B 
 121      705D 2025 
 121      640A 00
 122               	.LC6:
 123 003b 2564 2028 		.string	"%d (2)"
 123      3229 00
 124               	.LC7:
 125 0042 0A77 6169 		.string	"\nwait %d\n"
 125      7420 2564 
 125      0A00 
 126               	.LC8:
 127 004c 0A63 6363 		.string	"\nccccount[p] %d\n"
 127      636F 756E 
 127      745B 705D 
 127      2025 640A 
 127      00
 128               	.LC9:
 129 005d 0A72 6561 		.string	"\nready %d\n"
 129      6479 2025 
 129      640A 00
 130               	.LC10:
 131 0068 656E 6432 		.string	"end2 "
 131      2000 
 132               		.text
 133               		.align	2
 134               		.globl	task2
 135               		.type	task2, @function
 136               	task2:
 137               	.LFB5:
  34:test2.c       ****     //printf("\nready %d\n", ready);
  35:test2.c       **** }
  36:test2.c       **** }
  37:test2.c       **** 
  38:test2.c       **** 
  39:test2.c       **** void task2(){
 138               		.loc 1 39 0
 139               		.cfi_startproc
 140 00aa 48E7 2030 		movem.l #8240,-(%sp)
 141               		.cfi_def_cfa_offset 16
 142               		.cfi_offset 2, -16
 143               		.cfi_offset 10, -12
 144               		.cfi_offset 11, -8
 145               	.LVL11:
  40:test2.c       ****     int j = 20000;
  41:test2.c       ****     printf("\ntask2 change\n");
 146               		.loc 1 41 0
 147 00ae 4879 0000 		pea .LC4
 147      0000 


 148               		.cfi_def_cfa_offset 20
 149 00b4 4EB9 0000 		jsr puts
 149      0000 
 150               	.LVL12:
  42:test2.c       ****     P(0);
 151               		.loc 1 42 0
 152 00ba 42A7      		clr.l -(%sp)
 153               		.cfi_def_cfa_offset 24
 154 00bc 4EB9 0000 		jsr P
 154      0000 
 155               	.LVL13:
  43:test2.c       ****     printf("\nccount[p] %d\n", semaphore[0].count);
 156               		.loc 1 43 0
 157 00c2 2F39 0000 		move.l semaphore,-(%sp)
 157      0000 
 158               		.cfi_def_cfa_offset 28
 159 00c8 4879 0000 		pea .LC5
 159      0000 
 160               		.cfi_def_cfa_offset 32
 161 00ce 45F9 0000 		lea printf,%a2
 161      0000 
 162 00d4 4E92      		jsr (%a2)
 163               	.LVL14:
 164 00d6 4FEF 0010 		lea (16,%sp),%sp
 165               		.cfi_def_cfa_offset 16
  40:test2.c       ****     int j = 20000;
 166               		.loc 1 40 0
 167 00da 243C 0000 		move.l #20000,%d2
 167      4E20 
 168               	.LVL15:
 169               	.L8:
  44:test2.c       ****     while(1){
  45:test2.c       ****         for (int k=0; k < 400000; k++);
  46:test2.c       ****         //printf("task2: %d\n", j/*semaphore[0].count*/);
  47:test2.c       ****         printf("%d (2)", j);
 170               		.loc 1 47 0
 171 00e0 2F02      		move.l %d2,-(%sp)
 172               		.cfi_def_cfa_offset 20
 173 00e2 4879 0000 		pea .LC6
 173      0000 
 174               		.cfi_def_cfa_offset 24
 175 00e8 47F9 0000 		lea printf,%a3
 175      0000 
 176 00ee 4E92      		jsr (%a2)
 177               	.LVL16:
  48:test2.c       ****         j--;
 178               		.loc 1 48 0
 179 00f0 5382      		subq.l #1,%d2
 180               	.LVL17:
  49:test2.c       ****         if (j == 19000) break;
 181               		.loc 1 49 0
 182 00f2 508F      		addq.l #8,%sp
 183               		.cfi_def_cfa_offset 16
 184 00f4 0C82 0000 		cmp.l #19000,%d2
 184      4A38 
 185 00fa 66E4      		jne .L8
  50:test2.c       ****     }


  51:test2.c       ****     printf("\nwait %d\n", semaphore[0].task_list);
 186               		.loc 1 51 0
 187 00fc 2F39 0000 		move.l semaphore+4,-(%sp)
 187      0000 
 188               		.cfi_def_cfa_offset 20
 189 0102 4879 0000 		pea .LC7
 189      0000 
 190               		.cfi_def_cfa_offset 24
 191 0108 4E93      		jsr (%a3)
 192               	.LVL18:
  52:test2.c       ****     V(0);
 193               		.loc 1 52 0
 194 010a 42A7      		clr.l -(%sp)
 195               		.cfi_def_cfa_offset 28
 196 010c 4EB9 0000 		jsr V
 196      0000 
 197               	.LVL19:
  53:test2.c       ****     printf("\nccccount[p] %d\n", semaphore[0].count);
 198               		.loc 1 53 0
 199 0112 2F39 0000 		move.l semaphore,-(%sp)
 199      0000 
 200               		.cfi_def_cfa_offset 32
 201 0118 4879 0000 		pea .LC8
 201      0000 
 202               		.cfi_def_cfa_offset 36
 203 011e 4E93      		jsr (%a3)
 204               	.LVL20:
  54:test2.c       ****     printf("\nready %d\n", ready);
 205               		.loc 1 54 0
 206 0120 2F39 0000 		move.l ready,-(%sp)
 206      0000 
 207               		.cfi_def_cfa_offset 40
 208 0126 4879 0000 		pea .LC9
 208      0000 
 209               		.cfi_def_cfa_offset 44
 210 012c 4E93      		jsr (%a3)
 211               	.LVL21:
  55:test2.c       ****     printf("\nwait %d\n", semaphore[0].task_list);
 212               		.loc 1 55 0
 213 012e 2F39 0000 		move.l semaphore+4,-(%sp)
 213      0000 
 214               		.cfi_def_cfa_offset 48
 215 0134 4879 0000 		pea .LC7
 215      0000 
 216               		.cfi_def_cfa_offset 52
 217 013a 4E93      		jsr (%a3)
 218               	.LVL22:
 219 013c 4FEF 0024 		lea (36,%sp),%sp
 220               		.cfi_def_cfa_offset 16
 221               	.L9:
  56:test2.c       ****     while(1) printf("end2 ");
 222               		.loc 1 56 0 discriminator 1
 223 0140 4879 0000 		pea .LC10
 223      0000 
 224               		.cfi_def_cfa_offset 20
 225 0146 4E92      		jsr (%a2)
 226               	.LVL23:


 227 0148 588F      		addq.l #4,%sp
 228               		.cfi_def_cfa_offset 16
 229 014a 4879 0000 		pea .LC10
 229      0000 
 230               		.cfi_def_cfa_offset 20
 231 0150 4E92      		jsr (%a2)
 232               	.LVL24:
 233 0152 588F      		addq.l #4,%sp
 234               		.cfi_def_cfa_offset 16
 235 0154 60EA      		jra .L9
 236               		.cfi_endproc
 237               	.LFE5:
 238               		.size	task2, .-task2
 239               		.section	.rodata.str1.1
 240               	.LC11:
 241 006e 7200      		.string	"r"
 242               	.LC12:
 243 0070 7700      		.string	"w"
 244               		.text
 245               		.align	2
 246               		.globl	init_file
 247               		.type	init_file, @function
 248               	init_file:
 249               	.LFB3:
   8:test2.c       ****    
 250               		.loc 1 8 0
 251               		.cfi_startproc
 252 0156 2F0A      		move.l %a2,-(%sp)
 253               		.cfi_def_cfa_offset 8
 254               		.cfi_offset 10, -8
  11:test2.c       ****    com0out = fdopen(3, "w");
 255               		.loc 1 11 0
 256 0158 4879 0000 		pea .LC11
 256      0000 
 257               		.cfi_def_cfa_offset 12
 258 015e 4878 0003 		pea 3.w
 259               		.cfi_def_cfa_offset 16
 260 0162 45F9 0000 		lea fdopen,%a2
 260      0000 
 261 0168 4E92      		jsr (%a2)
 262               	.LVL25:
 263 016a 23C0 0000 		move.l %d0,com0in
 263      0000 
  12:test2.c       ****    com1in = fdopen(4, "r");
 264               		.loc 1 12 0
 265 0170 4879 0000 		pea .LC12
 265      0000 
 266               		.cfi_def_cfa_offset 20
 267 0176 4878 0003 		pea 3.w
 268               		.cfi_def_cfa_offset 24
 269 017a 4E92      		jsr (%a2)
 270               	.LVL26:
 271 017c 23C0 0000 		move.l %d0,com0out
 271      0000 
  13:test2.c       ****    com1out = fdopen(4, "w");
 272               		.loc 1 13 0
 273 0182 4879 0000 		pea .LC11


 273      0000 
 274               		.cfi_def_cfa_offset 28
 275 0188 4878 0004 		pea 4.w
 276               		.cfi_def_cfa_offset 32
 277 018c 4E92      		jsr (%a2)
 278               	.LVL27:
 279 018e 23C0 0000 		move.l %d0,com1in
 279      0000 
  14:test2.c       **** }
 280               		.loc 1 14 0
 281 0194 4879 0000 		pea .LC12
 281      0000 
 282               		.cfi_def_cfa_offset 36
 283 019a 4878 0004 		pea 4.w
 284               		.cfi_def_cfa_offset 40
 285 019e 4E92      		jsr (%a2)
 286               	.LVL28:
 287 01a0 23C0 0000 		move.l %d0,com1out
 287      0000 
  15:test2.c       **** 
 288               		.loc 1 15 0
 289 01a6 4FEF 0020 		lea (32,%sp),%sp
 290               		.cfi_def_cfa_offset 8
 291 01aa 245F      		move.l (%sp)+,%a2
 292 01ac 4E75      		rts
 293               		.cfi_endproc
 294               	.LFE3:
 295               		.size	init_file, .-init_file
 296               		.section	.rodata.str1.1
 297               	.LC13:
 298 0072 0A74 6173 		.string	"\ntask3 change"
 298      6B33 2063 
 298      6861 6E67 
 298      6500 
 299               	.LC14:
 300 0080 0A63 6363 		.string	"\ncccount[p] %d\n"
 300      6F75 6E74 
 300      5B70 5D20 
 300      2564 0A00 
 301               	.LC15:
 302 0090 2564 2028 		.string	"%d (3)"
 302      3329 00
 303               	.LC16:
 304 0097 7461 736B 		.string	"task3"
 304      3300 
 305               		.text
 306               		.align	2
 307               		.globl	task3
 308               		.type	task3, @function
 309               	task3:
 310               	.LFB6:
  57:test2.c       **** }
  58:test2.c       **** 
  59:test2.c       **** 
  60:test2.c       **** void task3(){
 311               		.loc 1 60 0
 312               		.cfi_startproc


 313 01ae 2F0A      		move.l %a2,-(%sp)
 314               		.cfi_def_cfa_offset 8
 315               		.cfi_offset 10, -8
 316 01b0 2F02      		move.l %d2,-(%sp)
 317               		.cfi_def_cfa_offset 12
 318               		.cfi_offset 2, -12
 319               	.LVL29:
  61:test2.c       ****     int k = 100000;
  62:test2.c       ****     printf("\ntask3 change\n");
 320               		.loc 1 62 0
 321 01b2 4879 0000 		pea .LC13
 321      0000 
 322               		.cfi_def_cfa_offset 16
 323 01b8 4EB9 0000 		jsr puts
 323      0000 
 324               	.LVL30:
  63:test2.c       ****     P(0);
 325               		.loc 1 63 0
 326 01be 42A7      		clr.l -(%sp)
 327               		.cfi_def_cfa_offset 20
 328 01c0 4EB9 0000 		jsr P
 328      0000 
 329               	.LVL31:
  64:test2.c       ****     printf("\ncccount[p] %d\n", semaphore[0].count);
 330               		.loc 1 64 0
 331 01c6 2F39 0000 		move.l semaphore,-(%sp)
 331      0000 
 332               		.cfi_def_cfa_offset 24
 333 01cc 4879 0000 		pea .LC14
 333      0000 
 334               		.cfi_def_cfa_offset 28
 335 01d2 45F9 0000 		lea printf,%a2
 335      0000 
 336 01d8 4E92      		jsr (%a2)
 337               	.LVL32:
 338 01da 4FEF 0010 		lea (16,%sp),%sp
 339               		.cfi_def_cfa_offset 12
  61:test2.c       ****     int k = 100000;
 340               		.loc 1 61 0
 341 01de 243C 0001 		move.l #100000,%d2
 341      86A0 
 342               	.LVL33:
 343               	.L15:
  65:test2.c       ****     while(1){
  66:test2.c       ****         for (int k=0; k < 400000; k++);
  67:test2.c       ****         //printf("task2: %d\n", j/*semaphore[0].count*/);
  68:test2.c       ****         printf("%d (3)", k);
 344               		.loc 1 68 0
 345 01e4 2F02      		move.l %d2,-(%sp)
 346               		.cfi_def_cfa_offset 16
 347 01e6 4879 0000 		pea .LC15
 347      0000 
 348               		.cfi_def_cfa_offset 20
 349 01ec 4E92      		jsr (%a2)
 350               	.LVL34:
  69:test2.c       ****         k--;
 351               		.loc 1 69 0


 352 01ee 5382      		subq.l #1,%d2
 353               	.LVL35:
  70:test2.c       ****         if (k == 95000) break;
 354               		.loc 1 70 0
 355 01f0 508F      		addq.l #8,%sp
 356               		.cfi_def_cfa_offset 12
 357 01f2 0C82 0001 		cmp.l #95000,%d2
 357      7318 
 358 01f8 66EA      		jne .L15
  71:test2.c       ****     }
  72:test2.c       ****     V(0);
 359               		.loc 1 72 0
 360 01fa 42A7      		clr.l -(%sp)
 361               		.cfi_def_cfa_offset 16
 362 01fc 4EB9 0000 		jsr V
 362      0000 
 363               	.LVL36:
 364 0202 588F      		addq.l #4,%sp
 365               		.cfi_def_cfa_offset 12
 366               	.L16:
  73:test2.c       ****     while(1) printf("task3");
 367               		.loc 1 73 0 discriminator 1
 368 0204 4879 0000 		pea .LC16
 368      0000 
 369               		.cfi_def_cfa_offset 16
 370 020a 4E92      		jsr (%a2)
 371               	.LVL37:
 372 020c 588F      		addq.l #4,%sp
 373               		.cfi_def_cfa_offset 12
 374 020e 4879 0000 		pea .LC16
 374      0000 
 375               		.cfi_def_cfa_offset 16
 376 0214 4E92      		jsr (%a2)
 377               	.LVL38:
 378 0216 588F      		addq.l #4,%sp
 379               		.cfi_def_cfa_offset 12
 380 0218 60EA      		jra .L16
 381               		.cfi_endproc
 382               	.LFE6:
 383               		.size	task3, .-task3
 384               		.section	.rodata.str1.1
 385               	.LC17:
 386 009d 1B5B 730A 		.string	"\033[s\n\n\n\033[u"
 386      0A0A 1B5B 
 386      7500 
 387               		.section	.text.startup,"ax",@progbits
 388               		.align	2
 389               		.globl	main
 390               		.type	main, @function
 391               	main:
 392               	.LFB7:
  74:test2.c       **** }
  75:test2.c       **** 
  76:test2.c       **** 
  77:test2.c       **** 
  78:test2.c       **** int main(void){
 393               		.loc 1 78 0


 394               		.cfi_startproc
 395 0000 2F0A      		move.l %a2,-(%sp)
 396               		.cfi_def_cfa_offset 8
 397               		.cfi_offset 10, -8
  79:test2.c       ****     init_file();
 398               		.loc 1 79 0
 399 0002 4EB9 0000 		jsr init_file
 399      0000 
 400               	.LVL39:
  80:test2.c       ****     printf("\033[s\n\n\n\033[u");
 401               		.loc 1 80 0
 402 0008 4879 0000 		pea .LC17
 402      0000 
 403               		.cfi_def_cfa_offset 12
 404 000e 4EB9 0000 		jsr printf
 404      0000 
 405               	.LVL40:
  81:test2.c       ****     init_kernel();
 406               		.loc 1 81 0
 407 0014 4EB9 0000 		jsr init_kernel
 407      0000 
 408               	.LVL41:
  82:test2.c       ****     set_task(task1);
 409               		.loc 1 82 0
 410 001a 4879 0000 		pea task1
 410      0000 
 411               		.cfi_def_cfa_offset 16
 412 0020 45F9 0000 		lea set_task,%a2
 412      0000 
 413 0026 4E92      		jsr (%a2)
 414               	.LVL42:
  83:test2.c       ****     set_task(task2);
 415               		.loc 1 83 0
 416 0028 4879 0000 		pea task2
 416      0000 
 417               		.cfi_def_cfa_offset 20
 418 002e 4E92      		jsr (%a2)
 419               	.LVL43:
  84:test2.c       ****     //printf("%d\n", task_tab[1].next);
  85:test2.c       ****     //set_task(task3);
  86:test2.c       ****     //printf("%d\n", task_tab[1].next);
  87:test2.c       ****    // printf("%d\n", task_tab[2].next);
  88:test2.c       ****     //printf("%d\n", task_tab[3].next);
  89:test2.c       ****     
  90:test2.c       **** 
  91:test2.c       ****     begin_sch();
 420               		.loc 1 91 0
 421 0030 4EB9 0000 		jsr begin_sch
 421      0000 
 422               	.LVL44:
 423 0036 4FEF 000C 		lea (12,%sp),%sp
 424               		.cfi_def_cfa_offset 8
  92:test2.c       ****     
  93:test2.c       ****     return 0;
  94:test2.c       **** }
 425               		.loc 1 94 0
 426 003a 7000      		moveq #0,%d0


 427 003c 245F      		move.l (%sp)+,%a2
 428 003e 4E75      		rts
 429               		.cfi_endproc
 430               	.LFE7:
 431               		.size	main, .-main
 432               		.comm	com1out,4,2
 433               		.comm	com1in,4,2
 434               		.comm	com0out,4,2
 435               		.comm	com0in,4,2
 436               		.comm	stacks,14336,1
 437               		.comm	task_tab,160,2
 438               		.comm	semaphore,24,2
 439               		.comm	ready,4,2
 440               		.comm	next_task,4,2
 441               		.comm	new_task,4,2
 442               		.comm	curr_task,4,2
 443               		.text
 444               	.Letext0:
 445               		.file 2 "/usr/local/m68k-elf/include/sys/lock.h"
 446               		.file 3 "/usr/local/m68k-elf/include/sys/_types.h"
 447               		.file 4 "/usr/local/lib/gcc/m68k-elf/5.5.0/include/stddef.h"
 448               		.file 5 "/usr/local/m68k-elf/include/sys/reent.h"
 449               		.file 6 "/usr/local/m68k-elf/include/stdio.h"
 450               		.file 7 "mtk_c.h"
 451               		.file 8 "<built-in>"
 452               		.section	.debug_info,"",@progbits
 453               	.Ldebug_info0:
 454 0000 0000 0C1F 		.long	0xc1f
 455 0004 0004      		.word	0x4
 456 0006 0000 0000 		.long	.Ldebug_abbrev0
 457 000a 04        		.byte	0x4
 458 000b 01        		.uleb128 0x1
 459 000c 0000 0000 		.long	.LASF152
 460 0010 0C        		.byte	0xc
 461 0011 0000 0000 		.long	.LASF153
 462 0015 0000 0000 		.long	.LASF154
 463 0019 0000 0000 		.long	.Ldebug_ranges0+0
 464 001d 0000 0000 		.long	0
 465 0021 0000 0000 		.long	.Ldebug_line0
 466 0025 02        		.uleb128 0x2
 467 0026 01        		.byte	0x1
 468 0027 06        		.byte	0x6
 469 0028 0000 0000 		.long	.LASF0
 470 002c 02        		.uleb128 0x2
 471 002d 01        		.byte	0x1
 472 002e 08        		.byte	0x8
 473 002f 0000 0000 		.long	.LASF1
 474 0033 02        		.uleb128 0x2
 475 0034 02        		.byte	0x2
 476 0035 05        		.byte	0x5
 477 0036 0000 0000 		.long	.LASF2
 478 003a 02        		.uleb128 0x2
 479 003b 02        		.byte	0x2
 480 003c 07        		.byte	0x7
 481 003d 0000 0000 		.long	.LASF3
 482 0041 02        		.uleb128 0x2
 483 0042 04        		.byte	0x4


 484 0043 05        		.byte	0x5
 485 0044 0000 0000 		.long	.LASF4
 486 0048 02        		.uleb128 0x2
 487 0049 04        		.byte	0x4
 488 004a 07        		.byte	0x7
 489 004b 0000 0000 		.long	.LASF5
 490 004f 02        		.uleb128 0x2
 491 0050 08        		.byte	0x8
 492 0051 05        		.byte	0x5
 493 0052 0000 0000 		.long	.LASF6
 494 0056 02        		.uleb128 0x2
 495 0057 08        		.byte	0x8
 496 0058 07        		.byte	0x7
 497 0059 0000 0000 		.long	.LASF7
 498 005d 02        		.uleb128 0x2
 499 005e 0C        		.byte	0xc
 500 005f 04        		.byte	0x4
 501 0060 0000 0000 		.long	.LASF8
 502 0064 03        		.uleb128 0x3
 503 0065 04        		.byte	0x4
 504 0066 05        		.byte	0x5
 505 0067 696E 7400 		.string	"int"
 506 006b 04        		.uleb128 0x4
 507 006c 0000 0000 		.long	.LASF9
 508 0070 02        		.byte	0x2
 509 0071 0C        		.byte	0xc
 510 0072 0000 0064 		.long	0x64
 511 0076 04        		.uleb128 0x4
 512 0077 0000 0000 		.long	.LASF10
 513 007b 03        		.byte	0x3
 514 007c 2C        		.byte	0x2c
 515 007d 0000 0041 		.long	0x41
 516 0081 04        		.uleb128 0x4
 517 0082 0000 0000 		.long	.LASF11
 518 0086 03        		.byte	0x3
 519 0087 72        		.byte	0x72
 520 0088 0000 0041 		.long	0x41
 521 008c 04        		.uleb128 0x4
 522 008d 0000 0000 		.long	.LASF12
 523 0091 03        		.byte	0x3
 524 0092 91        		.byte	0x91
 525 0093 0000 0041 		.long	0x41
 526 0097 05        		.uleb128 0x5
 527 0098 0000 0000 		.long	.LASF13
 528 009c 04        		.byte	0x4
 529 009d 0165      		.word	0x165
 530 009f 0000 00A3 		.long	0xa3
 531 00a3 02        		.uleb128 0x2
 532 00a4 04        		.byte	0x4
 533 00a5 07        		.byte	0x7
 534 00a6 0000 0000 		.long	.LASF14
 535 00aa 06        		.uleb128 0x6
 536 00ab 04        		.byte	0x4
 537 00ac 03        		.byte	0x3
 538 00ad A6        		.byte	0xa6
 539 00ae 0000 00C9 		.long	0xc9
 540 00b2 07        		.uleb128 0x7


 541 00b3 0000 0000 		.long	.LASF15
 542 00b7 03        		.byte	0x3
 543 00b8 A8        		.byte	0xa8
 544 00b9 0000 0097 		.long	0x97
 545 00bd 07        		.uleb128 0x7
 546 00be 0000 0000 		.long	.LASF16
 547 00c2 03        		.byte	0x3
 548 00c3 A9        		.byte	0xa9
 549 00c4 0000 00C9 		.long	0xc9
 550 00c8 00        		.byte	0
 551 00c9 08        		.uleb128 0x8
 552 00ca 0000 002C 		.long	0x2c
 553 00ce 0000 00D9 		.long	0xd9
 554 00d2 09        		.uleb128 0x9
 555 00d3 0000 00D9 		.long	0xd9
 556 00d7 03        		.byte	0x3
 557 00d8 00        		.byte	0
 558 00d9 02        		.uleb128 0x2
 559 00da 04        		.byte	0x4
 560 00db 07        		.byte	0x7
 561 00dc 0000 0000 		.long	.LASF17
 562 00e0 0A        		.uleb128 0xa
 563 00e1 08        		.byte	0x8
 564 00e2 03        		.byte	0x3
 565 00e3 A3        		.byte	0xa3
 566 00e4 0000 0101 		.long	0x101
 567 00e8 0B        		.uleb128 0xb
 568 00e9 0000 0000 		.long	.LASF18
 569 00ed 03        		.byte	0x3
 570 00ee A5        		.byte	0xa5
 571 00ef 0000 0064 		.long	0x64
 572 00f3 00        		.byte	0
 573 00f4 0B        		.uleb128 0xb
 574 00f5 0000 0000 		.long	.LASF19
 575 00f9 03        		.byte	0x3
 576 00fa AA        		.byte	0xaa
 577 00fb 0000 00AA 		.long	0xaa
 578 00ff 04        		.byte	0x4
 579 0100 00        		.byte	0
 580 0101 04        		.uleb128 0x4
 581 0102 0000 0000 		.long	.LASF20
 582 0106 03        		.byte	0x3
 583 0107 AB        		.byte	0xab
 584 0108 0000 00E0 		.long	0xe0
 585 010c 04        		.uleb128 0x4
 586 010d 0000 0000 		.long	.LASF21
 587 0111 03        		.byte	0x3
 588 0112 AF        		.byte	0xaf
 589 0113 0000 006B 		.long	0x6b
 590 0117 0C        		.uleb128 0xc
 591 0118 04        		.byte	0x4
 592 0119 04        		.uleb128 0x4
 593 011a 0000 0000 		.long	.LASF22
 594 011e 05        		.byte	0x5
 595 011f 16        		.byte	0x16
 596 0120 0000 0048 		.long	0x48
 597 0124 0D        		.uleb128 0xd


 598 0125 0000 0000 		.long	.LASF27
 599 0129 18        		.byte	0x18
 600 012a 05        		.byte	0x5
 601 012b 2F        		.byte	0x2f
 602 012c 0000 0177 		.long	0x177
 603 0130 0B        		.uleb128 0xb
 604 0131 0000 0000 		.long	.LASF23
 605 0135 05        		.byte	0x5
 606 0136 31        		.byte	0x31
 607 0137 0000 0177 		.long	0x177
 608 013b 00        		.byte	0
 609 013c 0E        		.uleb128 0xe
 610 013d 5F6B 00   		.string	"_k"
 611 0140 05        		.byte	0x5
 612 0141 32        		.byte	0x32
 613 0142 0000 0064 		.long	0x64
 614 0146 04        		.byte	0x4
 615 0147 0B        		.uleb128 0xb
 616 0148 0000 0000 		.long	.LASF24
 617 014c 05        		.byte	0x5
 618 014d 32        		.byte	0x32
 619 014e 0000 0064 		.long	0x64
 620 0152 08        		.byte	0x8
 621 0153 0B        		.uleb128 0xb
 622 0154 0000 0000 		.long	.LASF25
 623 0158 05        		.byte	0x5
 624 0159 32        		.byte	0x32
 625 015a 0000 0064 		.long	0x64
 626 015e 0C        		.byte	0xc
 627 015f 0B        		.uleb128 0xb
 628 0160 0000 0000 		.long	.LASF26
 629 0164 05        		.byte	0x5
 630 0165 32        		.byte	0x32
 631 0166 0000 0064 		.long	0x64
 632 016a 10        		.byte	0x10
 633 016b 0E        		.uleb128 0xe
 634 016c 5F78 00   		.string	"_x"
 635 016f 05        		.byte	0x5
 636 0170 33        		.byte	0x33
 637 0171 0000 017D 		.long	0x17d
 638 0175 14        		.byte	0x14
 639 0176 00        		.byte	0
 640 0177 0F        		.uleb128 0xf
 641 0178 04        		.byte	0x4
 642 0179 0000 0124 		.long	0x124
 643 017d 08        		.uleb128 0x8
 644 017e 0000 0119 		.long	0x119
 645 0182 0000 018D 		.long	0x18d
 646 0186 09        		.uleb128 0x9
 647 0187 0000 00D9 		.long	0xd9
 648 018b 00        		.byte	0
 649 018c 00        		.byte	0
 650 018d 0D        		.uleb128 0xd
 651 018e 0000 0000 		.long	.LASF28
 652 0192 24        		.byte	0x24
 653 0193 05        		.byte	0x5
 654 0194 37        		.byte	0x37


 655 0195 0000 0206 		.long	0x206
 656 0199 0B        		.uleb128 0xb
 657 019a 0000 0000 		.long	.LASF29
 658 019e 05        		.byte	0x5
 659 019f 39        		.byte	0x39
 660 01a0 0000 0064 		.long	0x64
 661 01a4 00        		.byte	0
 662 01a5 0B        		.uleb128 0xb
 663 01a6 0000 0000 		.long	.LASF30
 664 01aa 05        		.byte	0x5
 665 01ab 3A        		.byte	0x3a
 666 01ac 0000 0064 		.long	0x64
 667 01b0 04        		.byte	0x4
 668 01b1 0B        		.uleb128 0xb
 669 01b2 0000 0000 		.long	.LASF31
 670 01b6 05        		.byte	0x5
 671 01b7 3B        		.byte	0x3b
 672 01b8 0000 0064 		.long	0x64
 673 01bc 08        		.byte	0x8
 674 01bd 0B        		.uleb128 0xb
 675 01be 0000 0000 		.long	.LASF32
 676 01c2 05        		.byte	0x5
 677 01c3 3C        		.byte	0x3c
 678 01c4 0000 0064 		.long	0x64
 679 01c8 0C        		.byte	0xc
 680 01c9 0B        		.uleb128 0xb
 681 01ca 0000 0000 		.long	.LASF33
 682 01ce 05        		.byte	0x5
 683 01cf 3D        		.byte	0x3d
 684 01d0 0000 0064 		.long	0x64
 685 01d4 10        		.byte	0x10
 686 01d5 0B        		.uleb128 0xb
 687 01d6 0000 0000 		.long	.LASF34
 688 01da 05        		.byte	0x5
 689 01db 3E        		.byte	0x3e
 690 01dc 0000 0064 		.long	0x64
 691 01e0 14        		.byte	0x14
 692 01e1 0B        		.uleb128 0xb
 693 01e2 0000 0000 		.long	.LASF35
 694 01e6 05        		.byte	0x5
 695 01e7 3F        		.byte	0x3f
 696 01e8 0000 0064 		.long	0x64
 697 01ec 18        		.byte	0x18
 698 01ed 0B        		.uleb128 0xb
 699 01ee 0000 0000 		.long	.LASF36
 700 01f2 05        		.byte	0x5
 701 01f3 40        		.byte	0x40
 702 01f4 0000 0064 		.long	0x64
 703 01f8 1C        		.byte	0x1c
 704 01f9 0B        		.uleb128 0xb
 705 01fa 0000 0000 		.long	.LASF37
 706 01fe 05        		.byte	0x5
 707 01ff 41        		.byte	0x41
 708 0200 0000 0064 		.long	0x64
 709 0204 20        		.byte	0x20
 710 0205 00        		.byte	0
 711 0206 10        		.uleb128 0x10


 712 0207 0000 0000 		.long	.LASF38
 713 020b 0108      		.word	0x108
 714 020d 05        		.byte	0x5
 715 020e 4A        		.byte	0x4a
 716 020f 0000 0246 		.long	0x246
 717 0213 0B        		.uleb128 0xb
 718 0214 0000 0000 		.long	.LASF39
 719 0218 05        		.byte	0x5
 720 0219 4B        		.byte	0x4b
 721 021a 0000 0246 		.long	0x246
 722 021e 00        		.byte	0
 723 021f 0B        		.uleb128 0xb
 724 0220 0000 0000 		.long	.LASF40
 725 0224 05        		.byte	0x5
 726 0225 4C        		.byte	0x4c
 727 0226 0000 0246 		.long	0x246
 728 022a 80        		.byte	0x80
 729 022b 11        		.uleb128 0x11
 730 022c 0000 0000 		.long	.LASF41
 731 0230 05        		.byte	0x5
 732 0231 4E        		.byte	0x4e
 733 0232 0000 0119 		.long	0x119
 734 0236 0100      		.word	0x100
 735 0238 11        		.uleb128 0x11
 736 0239 0000 0000 		.long	.LASF42
 737 023d 05        		.byte	0x5
 738 023e 51        		.byte	0x51
 739 023f 0000 0119 		.long	0x119
 740 0243 0104      		.word	0x104
 741 0245 00        		.byte	0
 742 0246 08        		.uleb128 0x8
 743 0247 0000 0117 		.long	0x117
 744 024b 0000 0256 		.long	0x256
 745 024f 09        		.uleb128 0x9
 746 0250 0000 00D9 		.long	0xd9
 747 0254 1F        		.byte	0x1f
 748 0255 00        		.byte	0
 749 0256 10        		.uleb128 0x10
 750 0257 0000 0000 		.long	.LASF43
 751 025b 0190      		.word	0x190
 752 025d 05        		.byte	0x5
 753 025e 5D        		.byte	0x5d
 754 025f 0000 0294 		.long	0x294
 755 0263 0B        		.uleb128 0xb
 756 0264 0000 0000 		.long	.LASF23
 757 0268 05        		.byte	0x5
 758 0269 5E        		.byte	0x5e
 759 026a 0000 0294 		.long	0x294
 760 026e 00        		.byte	0
 761 026f 0B        		.uleb128 0xb
 762 0270 0000 0000 		.long	.LASF44
 763 0274 05        		.byte	0x5
 764 0275 5F        		.byte	0x5f
 765 0276 0000 0064 		.long	0x64
 766 027a 04        		.byte	0x4
 767 027b 0B        		.uleb128 0xb
 768 027c 0000 0000 		.long	.LASF45


 769 0280 05        		.byte	0x5
 770 0281 61        		.byte	0x61
 771 0282 0000 029A 		.long	0x29a
 772 0286 08        		.byte	0x8
 773 0287 0B        		.uleb128 0xb
 774 0288 0000 0000 		.long	.LASF38
 775 028c 05        		.byte	0x5
 776 028d 62        		.byte	0x62
 777 028e 0000 0206 		.long	0x206
 778 0292 88        		.byte	0x88
 779 0293 00        		.byte	0
 780 0294 0F        		.uleb128 0xf
 781 0295 04        		.byte	0x4
 782 0296 0000 0256 		.long	0x256
 783 029a 08        		.uleb128 0x8
 784 029b 0000 02AA 		.long	0x2aa
 785 029f 0000 02AA 		.long	0x2aa
 786 02a3 09        		.uleb128 0x9
 787 02a4 0000 00D9 		.long	0xd9
 788 02a8 1F        		.byte	0x1f
 789 02a9 00        		.byte	0
 790 02aa 0F        		.uleb128 0xf
 791 02ab 04        		.byte	0x4
 792 02ac 0000 02B0 		.long	0x2b0
 793 02b0 12        		.uleb128 0x12
 794 02b1 0D        		.uleb128 0xd
 795 02b2 0000 0000 		.long	.LASF46
 796 02b6 08        		.byte	0x8
 797 02b7 05        		.byte	0x5
 798 02b8 75        		.byte	0x75
 799 02b9 0000 02D6 		.long	0x2d6
 800 02bd 0B        		.uleb128 0xb
 801 02be 0000 0000 		.long	.LASF47
 802 02c2 05        		.byte	0x5
 803 02c3 76        		.byte	0x76
 804 02c4 0000 02D6 		.long	0x2d6
 805 02c8 00        		.byte	0
 806 02c9 0B        		.uleb128 0xb
 807 02ca 0000 0000 		.long	.LASF48
 808 02ce 05        		.byte	0x5
 809 02cf 77        		.byte	0x77
 810 02d0 0000 0064 		.long	0x64
 811 02d4 04        		.byte	0x4
 812 02d5 00        		.byte	0
 813 02d6 0F        		.uleb128 0xf
 814 02d7 04        		.byte	0x4
 815 02d8 0000 002C 		.long	0x2c
 816 02dc 0D        		.uleb128 0xd
 817 02dd 0000 0000 		.long	.LASF49
 818 02e1 68        		.byte	0x68
 819 02e2 05        		.byte	0x5
 820 02e3 B5        		.byte	0xb5
 821 02e4 0000 0406 		.long	0x406
 822 02e8 0E        		.uleb128 0xe
 823 02e9 5F70 00   		.string	"_p"
 824 02ec 05        		.byte	0x5
 825 02ed B6        		.byte	0xb6


 826 02ee 0000 02D6 		.long	0x2d6
 827 02f2 00        		.byte	0
 828 02f3 0E        		.uleb128 0xe
 829 02f4 5F72 00   		.string	"_r"
 830 02f7 05        		.byte	0x5
 831 02f8 B7        		.byte	0xb7
 832 02f9 0000 0064 		.long	0x64
 833 02fd 04        		.byte	0x4
 834 02fe 0E        		.uleb128 0xe
 835 02ff 5F77 00   		.string	"_w"
 836 0302 05        		.byte	0x5
 837 0303 B8        		.byte	0xb8
 838 0304 0000 0064 		.long	0x64
 839 0308 08        		.byte	0x8
 840 0309 0B        		.uleb128 0xb
 841 030a 0000 0000 		.long	.LASF50
 842 030e 05        		.byte	0x5
 843 030f B9        		.byte	0xb9
 844 0310 0000 0033 		.long	0x33
 845 0314 0C        		.byte	0xc
 846 0315 0B        		.uleb128 0xb
 847 0316 0000 0000 		.long	.LASF51
 848 031a 05        		.byte	0x5
 849 031b BA        		.byte	0xba
 850 031c 0000 0033 		.long	0x33
 851 0320 0E        		.byte	0xe
 852 0321 0E        		.uleb128 0xe
 853 0322 5F62 6600 		.string	"_bf"
 854 0326 05        		.byte	0x5
 855 0327 BB        		.byte	0xbb
 856 0328 0000 02B1 		.long	0x2b1
 857 032c 10        		.byte	0x10
 858 032d 0B        		.uleb128 0xb
 859 032e 0000 0000 		.long	.LASF52
 860 0332 05        		.byte	0x5
 861 0333 BC        		.byte	0xbc
 862 0334 0000 0064 		.long	0x64
 863 0338 18        		.byte	0x18
 864 0339 0B        		.uleb128 0xb
 865 033a 0000 0000 		.long	.LASF53
 866 033e 05        		.byte	0x5
 867 033f C3        		.byte	0xc3
 868 0340 0000 0117 		.long	0x117
 869 0344 1C        		.byte	0x1c
 870 0345 0B        		.uleb128 0xb
 871 0346 0000 0000 		.long	.LASF54
 872 034a 05        		.byte	0x5
 873 034b C5        		.byte	0xc5
 874 034c 0000 0569 		.long	0x569
 875 0350 20        		.byte	0x20
 876 0351 0B        		.uleb128 0xb
 877 0352 0000 0000 		.long	.LASF55
 878 0356 05        		.byte	0x5
 879 0357 C7        		.byte	0xc7
 880 0358 0000 0598 		.long	0x598
 881 035c 24        		.byte	0x24
 882 035d 0B        		.uleb128 0xb


 883 035e 0000 0000 		.long	.LASF56
 884 0362 05        		.byte	0x5
 885 0363 CA        		.byte	0xca
 886 0364 0000 05BC 		.long	0x5bc
 887 0368 28        		.byte	0x28
 888 0369 0B        		.uleb128 0xb
 889 036a 0000 0000 		.long	.LASF57
 890 036e 05        		.byte	0x5
 891 036f CB        		.byte	0xcb
 892 0370 0000 05D6 		.long	0x5d6
 893 0374 2C        		.byte	0x2c
 894 0375 0E        		.uleb128 0xe
 895 0376 5F75 6200 		.string	"_ub"
 896 037a 05        		.byte	0x5
 897 037b CE        		.byte	0xce
 898 037c 0000 02B1 		.long	0x2b1
 899 0380 30        		.byte	0x30
 900 0381 0E        		.uleb128 0xe
 901 0382 5F75 7000 		.string	"_up"
 902 0386 05        		.byte	0x5
 903 0387 CF        		.byte	0xcf
 904 0388 0000 02D6 		.long	0x2d6
 905 038c 38        		.byte	0x38
 906 038d 0E        		.uleb128 0xe
 907 038e 5F75 7200 		.string	"_ur"
 908 0392 05        		.byte	0x5
 909 0393 D0        		.byte	0xd0
 910 0394 0000 0064 		.long	0x64
 911 0398 3C        		.byte	0x3c
 912 0399 0B        		.uleb128 0xb
 913 039a 0000 0000 		.long	.LASF58
 914 039e 05        		.byte	0x5
 915 039f D3        		.byte	0xd3
 916 03a0 0000 05DC 		.long	0x5dc
 917 03a4 40        		.byte	0x40
 918 03a5 0B        		.uleb128 0xb
 919 03a6 0000 0000 		.long	.LASF59
 920 03aa 05        		.byte	0x5
 921 03ab D4        		.byte	0xd4
 922 03ac 0000 05EC 		.long	0x5ec
 923 03b0 43        		.byte	0x43
 924 03b1 0E        		.uleb128 0xe
 925 03b2 5F6C 6200 		.string	"_lb"
 926 03b6 05        		.byte	0x5
 927 03b7 D7        		.byte	0xd7
 928 03b8 0000 02B1 		.long	0x2b1
 929 03bc 44        		.byte	0x44
 930 03bd 0B        		.uleb128 0xb
 931 03be 0000 0000 		.long	.LASF60
 932 03c2 05        		.byte	0x5
 933 03c3 DA        		.byte	0xda
 934 03c4 0000 0064 		.long	0x64
 935 03c8 4C        		.byte	0x4c
 936 03c9 0B        		.uleb128 0xb
 937 03ca 0000 0000 		.long	.LASF61
 938 03ce 05        		.byte	0x5
 939 03cf DB        		.byte	0xdb


 940 03d0 0000 0076 		.long	0x76
 941 03d4 50        		.byte	0x50
 942 03d5 0B        		.uleb128 0xb
 943 03d6 0000 0000 		.long	.LASF62
 944 03da 05        		.byte	0x5
 945 03db DE        		.byte	0xde
 946 03dc 0000 0424 		.long	0x424
 947 03e0 54        		.byte	0x54
 948 03e1 0B        		.uleb128 0xb
 949 03e2 0000 0000 		.long	.LASF63
 950 03e6 05        		.byte	0x5
 951 03e7 E2        		.byte	0xe2
 952 03e8 0000 010C 		.long	0x10c
 953 03ec 58        		.byte	0x58
 954 03ed 0B        		.uleb128 0xb
 955 03ee 0000 0000 		.long	.LASF64
 956 03f2 05        		.byte	0x5
 957 03f3 E4        		.byte	0xe4
 958 03f4 0000 0101 		.long	0x101
 959 03f8 5C        		.byte	0x5c
 960 03f9 0B        		.uleb128 0xb
 961 03fa 0000 0000 		.long	.LASF65
 962 03fe 05        		.byte	0x5
 963 03ff E5        		.byte	0xe5
 964 0400 0000 0064 		.long	0x64
 965 0404 64        		.byte	0x64
 966 0405 00        		.byte	0
 967 0406 13        		.uleb128 0x13
 968 0407 0000 008C 		.long	0x8c
 969 040b 0000 0424 		.long	0x424
 970 040f 14        		.uleb128 0x14
 971 0410 0000 0424 		.long	0x424
 972 0414 14        		.uleb128 0x14
 973 0415 0000 0117 		.long	0x117
 974 0419 14        		.uleb128 0x14
 975 041a 0000 055C 		.long	0x55c
 976 041e 14        		.uleb128 0x14
 977 041f 0000 0064 		.long	0x64
 978 0423 00        		.byte	0
 979 0424 0F        		.uleb128 0xf
 980 0425 04        		.byte	0x4
 981 0426 0000 042A 		.long	0x42a
 982 042a 15        		.uleb128 0x15
 983 042b 0000 0000 		.long	.LASF66
 984 042f 0422      		.word	0x422
 985 0431 05        		.byte	0x5
 986 0432 0239      		.word	0x239
 987 0434 0000 055C 		.long	0x55c
 988 0438 16        		.uleb128 0x16
 989 0439 0000 0000 		.long	.LASF67
 990 043d 05        		.byte	0x5
 991 043e 023B      		.word	0x23b
 992 0440 0000 0064 		.long	0x64
 993 0444 00        		.byte	0
 994 0445 16        		.uleb128 0x16
 995 0446 0000 0000 		.long	.LASF68
 996 044a 05        		.byte	0x5


 997 044b 0240      		.word	0x240
 998 044d 0000 0643 		.long	0x643
 999 0451 04        		.byte	0x4
 1000 0452 16        		.uleb128 0x16
 1001 0453 0000 0000 		.long	.LASF69
 1002 0457 05        		.byte	0x5
 1003 0458 0240      		.word	0x240
 1004 045a 0000 0643 		.long	0x643
 1005 045e 08        		.byte	0x8
 1006 045f 16        		.uleb128 0x16
 1007 0460 0000 0000 		.long	.LASF70
 1008 0464 05        		.byte	0x5
 1009 0465 0240      		.word	0x240
 1010 0467 0000 0643 		.long	0x643
 1011 046b 0C        		.byte	0xc
 1012 046c 16        		.uleb128 0x16
 1013 046d 0000 0000 		.long	.LASF71
 1014 0471 05        		.byte	0x5
 1015 0472 0242      		.word	0x242
 1016 0474 0000 0064 		.long	0x64
 1017 0478 10        		.byte	0x10
 1018 0479 16        		.uleb128 0x16
 1019 047a 0000 0000 		.long	.LASF72
 1020 047e 05        		.byte	0x5
 1021 047f 0243      		.word	0x243
 1022 0481 0000 0825 		.long	0x825
 1023 0485 14        		.byte	0x14
 1024 0486 16        		.uleb128 0x16
 1025 0487 0000 0000 		.long	.LASF73
 1026 048b 05        		.byte	0x5
 1027 048c 0246      		.word	0x246
 1028 048e 0000 0064 		.long	0x64
 1029 0492 2E        		.byte	0x2e
 1030 0493 16        		.uleb128 0x16
 1031 0494 0000 0000 		.long	.LASF74
 1032 0498 05        		.byte	0x5
 1033 0499 0247      		.word	0x247
 1034 049b 0000 083A 		.long	0x83a
 1035 049f 32        		.byte	0x32
 1036 04a0 16        		.uleb128 0x16
 1037 04a1 0000 0000 		.long	.LASF75
 1038 04a5 05        		.byte	0x5
 1039 04a6 0249      		.word	0x249
 1040 04a8 0000 0064 		.long	0x64
 1041 04ac 36        		.byte	0x36
 1042 04ad 16        		.uleb128 0x16
 1043 04ae 0000 0000 		.long	.LASF76
 1044 04b2 05        		.byte	0x5
 1045 04b3 024B      		.word	0x24b
 1046 04b5 0000 084B 		.long	0x84b
 1047 04b9 3A        		.byte	0x3a
 1048 04ba 16        		.uleb128 0x16
 1049 04bb 0000 0000 		.long	.LASF77
 1050 04bf 05        		.byte	0x5
 1051 04c0 024E      		.word	0x24e
 1052 04c2 0000 0177 		.long	0x177
 1053 04c6 3E        		.byte	0x3e


 1054 04c7 16        		.uleb128 0x16
 1055 04c8 0000 0000 		.long	.LASF78
 1056 04cc 05        		.byte	0x5
 1057 04cd 024F      		.word	0x24f
 1058 04cf 0000 0064 		.long	0x64
 1059 04d3 42        		.byte	0x42
 1060 04d4 16        		.uleb128 0x16
 1061 04d5 0000 0000 		.long	.LASF79
 1062 04d9 05        		.byte	0x5
 1063 04da 0250      		.word	0x250
 1064 04dc 0000 0177 		.long	0x177
 1065 04e0 46        		.byte	0x46
 1066 04e1 16        		.uleb128 0x16
 1067 04e2 0000 0000 		.long	.LASF80
 1068 04e6 05        		.byte	0x5
 1069 04e7 0251      		.word	0x251
 1070 04e9 0000 0851 		.long	0x851
 1071 04ed 4A        		.byte	0x4a
 1072 04ee 16        		.uleb128 0x16
 1073 04ef 0000 0000 		.long	.LASF81
 1074 04f3 05        		.byte	0x5
 1075 04f4 0254      		.word	0x254
 1076 04f6 0000 0064 		.long	0x64
 1077 04fa 4E        		.byte	0x4e
 1078 04fb 16        		.uleb128 0x16
 1079 04fc 0000 0000 		.long	.LASF82
 1080 0500 05        		.byte	0x5
 1081 0501 0255      		.word	0x255
 1082 0503 0000 055C 		.long	0x55c
 1083 0507 52        		.byte	0x52
 1084 0508 16        		.uleb128 0x16
 1085 0509 0000 0000 		.long	.LASF83
 1086 050d 05        		.byte	0x5
 1087 050e 0278      		.word	0x278
 1088 0510 0000 0803 		.long	0x803
 1089 0514 56        		.byte	0x56
 1090 0515 17        		.uleb128 0x17
 1091 0516 0000 0000 		.long	.LASF43
 1092 051a 05        		.byte	0x5
 1093 051b 027C      		.word	0x27c
 1094 051d 0000 0294 		.long	0x294
 1095 0521 0146      		.word	0x146
 1096 0523 17        		.uleb128 0x17
 1097 0524 0000 0000 		.long	.LASF84
 1098 0528 05        		.byte	0x5
 1099 0529 027D      		.word	0x27d
 1100 052b 0000 0256 		.long	0x256
 1101 052f 014A      		.word	0x14a
 1102 0531 17        		.uleb128 0x17
 1103 0532 0000 0000 		.long	.LASF85
 1104 0536 05        		.byte	0x5
 1105 0537 0281      		.word	0x281
 1106 0539 0000 0862 		.long	0x862
 1107 053d 02DA      		.word	0x2da
 1108 053f 17        		.uleb128 0x17
 1109 0540 0000 0000 		.long	.LASF86
 1110 0544 05        		.byte	0x5


 1111 0545 0286      		.word	0x286
 1112 0547 0000 0608 		.long	0x608
 1113 054b 02DE      		.word	0x2de
 1114 054d 17        		.uleb128 0x17
 1115 054e 0000 0000 		.long	.LASF87
 1116 0552 05        		.byte	0x5
 1117 0553 0288      		.word	0x288
 1118 0555 0000 086E 		.long	0x86e
 1119 0559 02EA      		.word	0x2ea
 1120 055b 00        		.byte	0
 1121 055c 0F        		.uleb128 0xf
 1122 055d 04        		.byte	0x4
 1123 055e 0000 0562 		.long	0x562
 1124 0562 02        		.uleb128 0x2
 1125 0563 01        		.byte	0x1
 1126 0564 06        		.byte	0x6
 1127 0565 0000 0000 		.long	.LASF88
 1128 0569 0F        		.uleb128 0xf
 1129 056a 04        		.byte	0x4
 1130 056b 0000 0406 		.long	0x406
 1131 056f 13        		.uleb128 0x13
 1132 0570 0000 008C 		.long	0x8c
 1133 0574 0000 058D 		.long	0x58d
 1134 0578 14        		.uleb128 0x14
 1135 0579 0000 0424 		.long	0x424
 1136 057d 14        		.uleb128 0x14
 1137 057e 0000 0117 		.long	0x117
 1138 0582 14        		.uleb128 0x14
 1139 0583 0000 058D 		.long	0x58d
 1140 0587 14        		.uleb128 0x14
 1141 0588 0000 0064 		.long	0x64
 1142 058c 00        		.byte	0
 1143 058d 0F        		.uleb128 0xf
 1144 058e 04        		.byte	0x4
 1145 058f 0000 0593 		.long	0x593
 1146 0593 18        		.uleb128 0x18
 1147 0594 0000 0562 		.long	0x562
 1148 0598 0F        		.uleb128 0xf
 1149 0599 04        		.byte	0x4
 1150 059a 0000 056F 		.long	0x56f
 1151 059e 13        		.uleb128 0x13
 1152 059f 0000 0081 		.long	0x81
 1153 05a3 0000 05BC 		.long	0x5bc
 1154 05a7 14        		.uleb128 0x14
 1155 05a8 0000 0424 		.long	0x424
 1156 05ac 14        		.uleb128 0x14
 1157 05ad 0000 0117 		.long	0x117
 1158 05b1 14        		.uleb128 0x14
 1159 05b2 0000 0081 		.long	0x81
 1160 05b6 14        		.uleb128 0x14
 1161 05b7 0000 0064 		.long	0x64
 1162 05bb 00        		.byte	0
 1163 05bc 0F        		.uleb128 0xf
 1164 05bd 04        		.byte	0x4
 1165 05be 0000 059E 		.long	0x59e
 1166 05c2 13        		.uleb128 0x13
 1167 05c3 0000 0064 		.long	0x64


 1168 05c7 0000 05D6 		.long	0x5d6
 1169 05cb 14        		.uleb128 0x14
 1170 05cc 0000 0424 		.long	0x424
 1171 05d0 14        		.uleb128 0x14
 1172 05d1 0000 0117 		.long	0x117
 1173 05d5 00        		.byte	0
 1174 05d6 0F        		.uleb128 0xf
 1175 05d7 04        		.byte	0x4
 1176 05d8 0000 05C2 		.long	0x5c2
 1177 05dc 08        		.uleb128 0x8
 1178 05dd 0000 002C 		.long	0x2c
 1179 05e1 0000 05EC 		.long	0x5ec
 1180 05e5 09        		.uleb128 0x9
 1181 05e6 0000 00D9 		.long	0xd9
 1182 05ea 02        		.byte	0x2
 1183 05eb 00        		.byte	0
 1184 05ec 08        		.uleb128 0x8
 1185 05ed 0000 002C 		.long	0x2c
 1186 05f1 0000 05FC 		.long	0x5fc
 1187 05f5 09        		.uleb128 0x9
 1188 05f6 0000 00D9 		.long	0xd9
 1189 05fa 00        		.byte	0
 1190 05fb 00        		.byte	0
 1191 05fc 05        		.uleb128 0x5
 1192 05fd 0000 0000 		.long	.LASF89
 1193 0601 05        		.byte	0x5
 1194 0602 011F      		.word	0x11f
 1195 0604 0000 02DC 		.long	0x2dc
 1196 0608 19        		.uleb128 0x19
 1197 0609 0000 0000 		.long	.LASF90
 1198 060d 0C        		.byte	0xc
 1199 060e 05        		.byte	0x5
 1200 060f 0123      		.word	0x123
 1201 0611 0000 063D 		.long	0x63d
 1202 0615 16        		.uleb128 0x16
 1203 0616 0000 0000 		.long	.LASF23
 1204 061a 05        		.byte	0x5
 1205 061b 0125      		.word	0x125
 1206 061d 0000 063D 		.long	0x63d
 1207 0621 00        		.byte	0
 1208 0622 16        		.uleb128 0x16
 1209 0623 0000 0000 		.long	.LASF91
 1210 0627 05        		.byte	0x5
 1211 0628 0126      		.word	0x126
 1212 062a 0000 0064 		.long	0x64
 1213 062e 04        		.byte	0x4
 1214 062f 16        		.uleb128 0x16
 1215 0630 0000 0000 		.long	.LASF92
 1216 0634 05        		.byte	0x5
 1217 0635 0127      		.word	0x127
 1218 0637 0000 0643 		.long	0x643
 1219 063b 08        		.byte	0x8
 1220 063c 00        		.byte	0
 1221 063d 0F        		.uleb128 0xf
 1222 063e 04        		.byte	0x4
 1223 063f 0000 0608 		.long	0x608
 1224 0643 0F        		.uleb128 0xf


 1225 0644 04        		.byte	0x4
 1226 0645 0000 05FC 		.long	0x5fc
 1227 0649 19        		.uleb128 0x19
 1228 064a 0000 0000 		.long	.LASF93
 1229 064e 0E        		.byte	0xe
 1230 064f 05        		.byte	0x5
 1231 0650 013F      		.word	0x13f
 1232 0652 0000 067E 		.long	0x67e
 1233 0656 16        		.uleb128 0x16
 1234 0657 0000 0000 		.long	.LASF94
 1235 065b 05        		.byte	0x5
 1236 065c 0140      		.word	0x140
 1237 065e 0000 067E 		.long	0x67e
 1238 0662 00        		.byte	0
 1239 0663 16        		.uleb128 0x16
 1240 0664 0000 0000 		.long	.LASF95
 1241 0668 05        		.byte	0x5
 1242 0669 0141      		.word	0x141
 1243 066b 0000 067E 		.long	0x67e
 1244 066f 06        		.byte	0x6
 1245 0670 16        		.uleb128 0x16
 1246 0671 0000 0000 		.long	.LASF96
 1247 0675 05        		.byte	0x5
 1248 0676 0142      		.word	0x142
 1249 0678 0000 003A 		.long	0x3a
 1250 067c 0C        		.byte	0xc
 1251 067d 00        		.byte	0
 1252 067e 08        		.uleb128 0x8
 1253 067f 0000 003A 		.long	0x3a
 1254 0683 0000 068E 		.long	0x68e
 1255 0687 09        		.uleb128 0x9
 1256 0688 0000 00D9 		.long	0xd9
 1257 068c 02        		.byte	0x2
 1258 068d 00        		.byte	0
 1259 068e 1A        		.uleb128 0x1a
 1260 068f C8        		.byte	0xc8
 1261 0690 05        		.byte	0x5
 1262 0691 0259      		.word	0x259
 1263 0693 0000 078F 		.long	0x78f
 1264 0697 16        		.uleb128 0x16
 1265 0698 0000 0000 		.long	.LASF97
 1266 069c 05        		.byte	0x5
 1267 069d 025B      		.word	0x25b
 1268 069f 0000 00A3 		.long	0xa3
 1269 06a3 00        		.byte	0
 1270 06a4 16        		.uleb128 0x16
 1271 06a5 0000 0000 		.long	.LASF98
 1272 06a9 05        		.byte	0x5
 1273 06aa 025C      		.word	0x25c
 1274 06ac 0000 055C 		.long	0x55c
 1275 06b0 04        		.byte	0x4
 1276 06b1 16        		.uleb128 0x16
 1277 06b2 0000 0000 		.long	.LASF99
 1278 06b6 05        		.byte	0x5
 1279 06b7 025D      		.word	0x25d
 1280 06b9 0000 078F 		.long	0x78f
 1281 06bd 08        		.byte	0x8


 1282 06be 16        		.uleb128 0x16
 1283 06bf 0000 0000 		.long	.LASF100
 1284 06c3 05        		.byte	0x5
 1285 06c4 025E      		.word	0x25e
 1286 06c6 0000 018D 		.long	0x18d
 1287 06ca 22        		.byte	0x22
 1288 06cb 16        		.uleb128 0x16
 1289 06cc 0000 0000 		.long	.LASF101
 1290 06d0 05        		.byte	0x5
 1291 06d1 025F      		.word	0x25f
 1292 06d3 0000 0064 		.long	0x64
 1293 06d7 46        		.byte	0x46
 1294 06d8 16        		.uleb128 0x16
 1295 06d9 0000 0000 		.long	.LASF102
 1296 06dd 05        		.byte	0x5
 1297 06de 0260      		.word	0x260
 1298 06e0 0000 0056 		.long	0x56
 1299 06e4 4A        		.byte	0x4a
 1300 06e5 16        		.uleb128 0x16
 1301 06e6 0000 0000 		.long	.LASF103
 1302 06ea 05        		.byte	0x5
 1303 06eb 0261      		.word	0x261
 1304 06ed 0000 0649 		.long	0x649
 1305 06f1 52        		.byte	0x52
 1306 06f2 16        		.uleb128 0x16
 1307 06f3 0000 0000 		.long	.LASF104
 1308 06f7 05        		.byte	0x5
 1309 06f8 0262      		.word	0x262
 1310 06fa 0000 0101 		.long	0x101
 1311 06fe 60        		.byte	0x60
 1312 06ff 16        		.uleb128 0x16
 1313 0700 0000 0000 		.long	.LASF105
 1314 0704 05        		.byte	0x5
 1315 0705 0263      		.word	0x263
 1316 0707 0000 0101 		.long	0x101
 1317 070b 68        		.byte	0x68
 1318 070c 16        		.uleb128 0x16
 1319 070d 0000 0000 		.long	.LASF106
 1320 0711 05        		.byte	0x5
 1321 0712 0264      		.word	0x264
 1322 0714 0000 0101 		.long	0x101
 1323 0718 70        		.byte	0x70
 1324 0719 16        		.uleb128 0x16
 1325 071a 0000 0000 		.long	.LASF107
 1326 071e 05        		.byte	0x5
 1327 071f 0265      		.word	0x265
 1328 0721 0000 079F 		.long	0x79f
 1329 0725 78        		.byte	0x78
 1330 0726 16        		.uleb128 0x16
 1331 0727 0000 0000 		.long	.LASF108
 1332 072b 05        		.byte	0x5
 1333 072c 0266      		.word	0x266
 1334 072e 0000 07AF 		.long	0x7af
 1335 0732 80        		.byte	0x80
 1336 0733 16        		.uleb128 0x16
 1337 0734 0000 0000 		.long	.LASF109
 1338 0738 05        		.byte	0x5


 1339 0739 0267      		.word	0x267
 1340 073b 0000 0064 		.long	0x64
 1341 073f 98        		.byte	0x98
 1342 0740 16        		.uleb128 0x16
 1343 0741 0000 0000 		.long	.LASF110
 1344 0745 05        		.byte	0x5
 1345 0746 0268      		.word	0x268
 1346 0748 0000 0101 		.long	0x101
 1347 074c 9C        		.byte	0x9c
 1348 074d 16        		.uleb128 0x16
 1349 074e 0000 0000 		.long	.LASF111
 1350 0752 05        		.byte	0x5
 1351 0753 0269      		.word	0x269
 1352 0755 0000 0101 		.long	0x101
 1353 0759 A4        		.byte	0xa4
 1354 075a 16        		.uleb128 0x16
 1355 075b 0000 0000 		.long	.LASF112
 1356 075f 05        		.byte	0x5
 1357 0760 026A      		.word	0x26a
 1358 0762 0000 0101 		.long	0x101
 1359 0766 AC        		.byte	0xac
 1360 0767 16        		.uleb128 0x16
 1361 0768 0000 0000 		.long	.LASF113
 1362 076c 05        		.byte	0x5
 1363 076d 026B      		.word	0x26b
 1364 076f 0000 0101 		.long	0x101
 1365 0773 B4        		.byte	0xb4
 1366 0774 16        		.uleb128 0x16
 1367 0775 0000 0000 		.long	.LASF114
 1368 0779 05        		.byte	0x5
 1369 077a 026C      		.word	0x26c
 1370 077c 0000 0101 		.long	0x101
 1371 0780 BC        		.byte	0xbc
 1372 0781 16        		.uleb128 0x16
 1373 0782 0000 0000 		.long	.LASF115
 1374 0786 05        		.byte	0x5
 1375 0787 026D      		.word	0x26d
 1376 0789 0000 0064 		.long	0x64
 1377 078d C4        		.byte	0xc4
 1378 078e 00        		.byte	0
 1379 078f 08        		.uleb128 0x8
 1380 0790 0000 0562 		.long	0x562
 1381 0794 0000 079F 		.long	0x79f
 1382 0798 09        		.uleb128 0x9
 1383 0799 0000 00D9 		.long	0xd9
 1384 079d 19        		.byte	0x19
 1385 079e 00        		.byte	0
 1386 079f 08        		.uleb128 0x8
 1387 07a0 0000 0562 		.long	0x562
 1388 07a4 0000 07AF 		.long	0x7af
 1389 07a8 09        		.uleb128 0x9
 1390 07a9 0000 00D9 		.long	0xd9
 1391 07ad 07        		.byte	0x7
 1392 07ae 00        		.byte	0
 1393 07af 08        		.uleb128 0x8
 1394 07b0 0000 0562 		.long	0x562
 1395 07b4 0000 07BF 		.long	0x7bf


 1396 07b8 09        		.uleb128 0x9
 1397 07b9 0000 00D9 		.long	0xd9
 1398 07bd 17        		.byte	0x17
 1399 07be 00        		.byte	0
 1400 07bf 1A        		.uleb128 0x1a
 1401 07c0 F0        		.byte	0xf0
 1402 07c1 05        		.byte	0x5
 1403 07c2 0272      		.word	0x272
 1404 07c4 0000 07E3 		.long	0x7e3
 1405 07c8 16        		.uleb128 0x16
 1406 07c9 0000 0000 		.long	.LASF116
 1407 07cd 05        		.byte	0x5
 1408 07ce 0275      		.word	0x275
 1409 07d0 0000 07E3 		.long	0x7e3
 1410 07d4 00        		.byte	0
 1411 07d5 16        		.uleb128 0x16
 1412 07d6 0000 0000 		.long	.LASF117
 1413 07da 05        		.byte	0x5
 1414 07db 0276      		.word	0x276
 1415 07dd 0000 07F3 		.long	0x7f3
 1416 07e1 78        		.byte	0x78
 1417 07e2 00        		.byte	0
 1418 07e3 08        		.uleb128 0x8
 1419 07e4 0000 02D6 		.long	0x2d6
 1420 07e8 0000 07F3 		.long	0x7f3
 1421 07ec 09        		.uleb128 0x9
 1422 07ed 0000 00D9 		.long	0xd9
 1423 07f1 1D        		.byte	0x1d
 1424 07f2 00        		.byte	0
 1425 07f3 08        		.uleb128 0x8
 1426 07f4 0000 00A3 		.long	0xa3
 1427 07f8 0000 0803 		.long	0x803
 1428 07fc 09        		.uleb128 0x9
 1429 07fd 0000 00D9 		.long	0xd9
 1430 0801 1D        		.byte	0x1d
 1431 0802 00        		.byte	0
 1432 0803 1B        		.uleb128 0x1b
 1433 0804 F0        		.byte	0xf0
 1434 0805 05        		.byte	0x5
 1435 0806 0257      		.word	0x257
 1436 0808 0000 0825 		.long	0x825
 1437 080c 1C        		.uleb128 0x1c
 1438 080d 0000 0000 		.long	.LASF66
 1439 0811 05        		.byte	0x5
 1440 0812 026E      		.word	0x26e
 1441 0814 0000 068E 		.long	0x68e
 1442 0818 1C        		.uleb128 0x1c
 1443 0819 0000 0000 		.long	.LASF118
 1444 081d 05        		.byte	0x5
 1445 081e 0277      		.word	0x277
 1446 0820 0000 07BF 		.long	0x7bf
 1447 0824 00        		.byte	0
 1448 0825 08        		.uleb128 0x8
 1449 0826 0000 0562 		.long	0x562
 1450 082a 0000 0835 		.long	0x835
 1451 082e 09        		.uleb128 0x9
 1452 082f 0000 00D9 		.long	0xd9


 1453 0833 18        		.byte	0x18
 1454 0834 00        		.byte	0
 1455 0835 1D        		.uleb128 0x1d
 1456 0836 0000 0000 		.long	.LASF155
 1457 083a 0F        		.uleb128 0xf
 1458 083b 04        		.byte	0x4
 1459 083c 0000 0835 		.long	0x835
 1460 0840 1E        		.uleb128 0x1e
 1461 0841 0000 084B 		.long	0x84b
 1462 0845 14        		.uleb128 0x14
 1463 0846 0000 0424 		.long	0x424
 1464 084a 00        		.byte	0
 1465 084b 0F        		.uleb128 0xf
 1466 084c 04        		.byte	0x4
 1467 084d 0000 0840 		.long	0x840
 1468 0851 0F        		.uleb128 0xf
 1469 0852 04        		.byte	0x4
 1470 0853 0000 0177 		.long	0x177
 1471 0857 1E        		.uleb128 0x1e
 1472 0858 0000 0862 		.long	0x862
 1473 085c 14        		.uleb128 0x14
 1474 085d 0000 0064 		.long	0x64
 1475 0861 00        		.byte	0
 1476 0862 0F        		.uleb128 0xf
 1477 0863 04        		.byte	0x4
 1478 0864 0000 0868 		.long	0x868
 1479 0868 0F        		.uleb128 0xf
 1480 0869 04        		.byte	0x4
 1481 086a 0000 0857 		.long	0x857
 1482 086e 08        		.uleb128 0x8
 1483 086f 0000 05FC 		.long	0x5fc
 1484 0873 0000 087E 		.long	0x87e
 1485 0877 09        		.uleb128 0x9
 1486 0878 0000 00D9 		.long	0xd9
 1487 087c 02        		.byte	0x2
 1488 087d 00        		.byte	0
 1489 087e 04        		.uleb128 0x4
 1490 087f 0000 0000 		.long	.LASF119
 1491 0883 06        		.byte	0x6
 1492 0884 42        		.byte	0x42
 1493 0885 0000 05FC 		.long	0x5fc
 1494 0889 04        		.uleb128 0x4
 1495 088a 0000 0000 		.long	.LASF120
 1496 088e 07        		.byte	0x7
 1497 088f 10        		.byte	0x10
 1498 0890 0000 0064 		.long	0x64
 1499 0894 0A        		.uleb128 0xa
 1500 0895 08        		.byte	0x8
 1501 0896 07        		.byte	0x7
 1502 0897 13        		.byte	0x13
 1503 0898 0000 08B5 		.long	0x8b5
 1504 089c 0B        		.uleb128 0xb
 1505 089d 0000 0000 		.long	.LASF121
 1506 08a1 07        		.byte	0x7
 1507 08a2 14        		.byte	0x14
 1508 08a3 0000 0064 		.long	0x64
 1509 08a7 00        		.byte	0


 1510 08a8 0B        		.uleb128 0xb
 1511 08a9 0000 0000 		.long	.LASF122
 1512 08ad 07        		.byte	0x7
 1513 08ae 15        		.byte	0x15
 1514 08af 0000 0889 		.long	0x889
 1515 08b3 04        		.byte	0x4
 1516 08b4 00        		.byte	0
 1517 08b5 04        		.uleb128 0x4
 1518 08b6 0000 0000 		.long	.LASF123
 1519 08ba 07        		.byte	0x7
 1520 08bb 16        		.byte	0x16
 1521 08bc 0000 0894 		.long	0x894
 1522 08c0 0A        		.uleb128 0xa
 1523 08c1 14        		.byte	0x14
 1524 08c2 07        		.byte	0x7
 1525 08c3 18        		.byte	0x18
 1526 08c4 0000 0905 		.long	0x905
 1527 08c8 0B        		.uleb128 0xb
 1528 08c9 0000 0000 		.long	.LASF124
 1529 08cd 07        		.byte	0x7
 1530 08ce 19        		.byte	0x19
 1531 08cf 0000 090C 		.long	0x90c
 1532 08d3 00        		.byte	0
 1533 08d4 0B        		.uleb128 0xb
 1534 08d5 0000 0000 		.long	.LASF125
 1535 08d9 07        		.byte	0x7
 1536 08da 1A        		.byte	0x1a
 1537 08db 0000 0117 		.long	0x117
 1538 08df 04        		.byte	0x4
 1539 08e0 0B        		.uleb128 0xb
 1540 08e1 0000 0000 		.long	.LASF126
 1541 08e5 07        		.byte	0x7
 1542 08e6 1B        		.byte	0x1b
 1543 08e7 0000 0064 		.long	0x64
 1544 08eb 08        		.byte	0x8
 1545 08ec 0B        		.uleb128 0xb
 1546 08ed 0000 0000 		.long	.LASF127
 1547 08f1 07        		.byte	0x7
 1548 08f2 1C        		.byte	0x1c
 1549 08f3 0000 0064 		.long	0x64
 1550 08f7 0C        		.byte	0xc
 1551 08f8 0B        		.uleb128 0xb
 1552 08f9 0000 0000 		.long	.LASF128
 1553 08fd 07        		.byte	0x7
 1554 08fe 1D        		.byte	0x1d
 1555 08ff 0000 0889 		.long	0x889
 1556 0903 10        		.byte	0x10
 1557 0904 00        		.byte	0
 1558 0905 1F        		.uleb128 0x1f
 1559 0906 0000 090C 		.long	0x90c
 1560 090a 20        		.uleb128 0x20
 1561 090b 00        		.byte	0
 1562 090c 0F        		.uleb128 0xf
 1563 090d 04        		.byte	0x4
 1564 090e 0000 0905 		.long	0x905
 1565 0912 04        		.uleb128 0x4
 1566 0913 0000 0000 		.long	.LASF129


 1567 0917 07        		.byte	0x7
 1568 0918 1E        		.byte	0x1e
 1569 0919 0000 08C0 		.long	0x8c0
 1570 091d 21        		.uleb128 0x21
 1571 091e 0800      		.word	0x800
 1572 0920 07        		.byte	0x7
 1573 0921 20        		.byte	0x20
 1574 0922 0000 0940 		.long	0x940
 1575 0926 0B        		.uleb128 0xb
 1576 0927 0000 0000 		.long	.LASF130
 1577 092b 07        		.byte	0x7
 1578 092c 21        		.byte	0x21
 1579 092d 0000 0940 		.long	0x940
 1580 0931 00        		.byte	0
 1581 0932 11        		.uleb128 0x11
 1582 0933 0000 0000 		.long	.LASF131
 1583 0937 07        		.byte	0x7
 1584 0938 22        		.byte	0x22
 1585 0939 0000 0940 		.long	0x940
 1586 093d 0400      		.word	0x400
 1587 093f 00        		.byte	0
 1588 0940 08        		.uleb128 0x8
 1589 0941 0000 0562 		.long	0x562
 1590 0945 0000 0951 		.long	0x951
 1591 0949 22        		.uleb128 0x22
 1592 094a 0000 00D9 		.long	0xd9
 1593 094e 03FF      		.word	0x3ff
 1594 0950 00        		.byte	0
 1595 0951 04        		.uleb128 0x4
 1596 0952 0000 0000 		.long	.LASF132
 1597 0956 07        		.byte	0x7
 1598 0957 23        		.byte	0x23
 1599 0958 0000 091D 		.long	0x91d
 1600 095c 23        		.uleb128 0x23
 1601 095d 0000 0000 		.long	.LASF133
 1602 0961 01        		.byte	0x1
 1603 0962 11        		.byte	0x11
 1604 0963 0000 0000 		.long	.LFB4
 1605 0967 0000 00AA 		.long	.LFE4-.LFB4
 1606 096b 01        		.uleb128 0x1
 1607 096c 9C        		.byte	0x9c
 1608 096d 0000 09AC 		.long	0x9ac
 1609 0971 24        		.uleb128 0x24
 1610 0972 6900      		.string	"i"
 1611 0974 01        		.byte	0x1
 1612 0975 12        		.byte	0x12
 1613 0976 0000 0064 		.long	0x64
 1614 097a 0000 0000 		.long	.LLST0
 1615 097e 25        		.uleb128 0x25
 1616 097f 6100      		.string	"a"
 1617 0981 01        		.byte	0x1
 1618 0982 13        		.byte	0x13
 1619 0983 0000 0064 		.long	0x64
 1620 0987 00        		.byte	0
 1621 0988 26        		.uleb128 0x26
 1622 0989 0000 0000 		.long	.LVL1
 1623 098d 0000 0BD9 		.long	0xbd9


 1624 0991 27        		.uleb128 0x27
 1625 0992 0000 0000 		.long	.LVL2
 1626 0996 02        		.uleb128 0x2
 1627 0997 7B        		.byte	0x7b
 1628 0998 00        		.sleb128 0
 1629 0999 26        		.uleb128 0x26
 1630 099a 0000 0000 		.long	.LVL6
 1631 099e 0000 0BE0 		.long	0xbe0
 1632 09a2 26        		.uleb128 0x26
 1633 09a3 0000 0000 		.long	.LVL7
 1634 09a7 0000 0BE7 		.long	0xbe7
 1635 09ab 00        		.byte	0
 1636 09ac 23        		.uleb128 0x23
 1637 09ad 0000 0000 		.long	.LASF134
 1638 09b1 01        		.byte	0x1
 1639 09b2 27        		.byte	0x27
 1640 09b3 0000 0000 		.long	.LFB5
 1641 09b7 0000 00AC 		.long	.LFE5-.LFB5
 1642 09bb 01        		.uleb128 0x1
 1643 09bc 9C        		.byte	0x9c
 1644 09bd 0000 0A12 		.long	0xa12
 1645 09c1 24        		.uleb128 0x24
 1646 09c2 6A00      		.string	"j"
 1647 09c4 01        		.byte	0x1
 1648 09c5 28        		.byte	0x28
 1649 09c6 0000 0064 		.long	0x64
 1650 09ca 0000 0000 		.long	.LLST1
 1651 09ce 26        		.uleb128 0x26
 1652 09cf 0000 0000 		.long	.LVL12
 1653 09d3 0000 0BF2 		.long	0xbf2
 1654 09d7 26        		.uleb128 0x26
 1655 09d8 0000 0000 		.long	.LVL13
 1656 09dc 0000 0BD9 		.long	0xbd9
 1657 09e0 27        		.uleb128 0x27
 1658 09e1 0000 0000 		.long	.LVL14
 1659 09e5 02        		.uleb128 0x2
 1660 09e6 7A        		.byte	0x7a
 1661 09e7 00        		.sleb128 0
 1662 09e8 27        		.uleb128 0x27
 1663 09e9 0000 0000 		.long	.LVL18
 1664 09ed 02        		.uleb128 0x2
 1665 09ee 7A        		.byte	0x7a
 1666 09ef 00        		.sleb128 0
 1667 09f0 26        		.uleb128 0x26
 1668 09f1 0000 0000 		.long	.LVL19
 1669 09f5 0000 0BE0 		.long	0xbe0
 1670 09f9 27        		.uleb128 0x27
 1671 09fa 0000 0000 		.long	.LVL20
 1672 09fe 02        		.uleb128 0x2
 1673 09ff 7A        		.byte	0x7a
 1674 0a00 00        		.sleb128 0
 1675 0a01 27        		.uleb128 0x27
 1676 0a02 0000 0000 		.long	.LVL21
 1677 0a06 02        		.uleb128 0x2
 1678 0a07 7A        		.byte	0x7a
 1679 0a08 00        		.sleb128 0
 1680 0a09 27        		.uleb128 0x27


 1681 0a0a 0000 0000 		.long	.LVL22
 1682 0a0e 02        		.uleb128 0x2
 1683 0a0f 7A        		.byte	0x7a
 1684 0a10 00        		.sleb128 0
 1685 0a11 00        		.byte	0
 1686 0a12 28        		.uleb128 0x28
 1687 0a13 0000 0000 		.long	.LASF156
 1688 0a17 01        		.byte	0x1
 1689 0a18 08        		.byte	0x8
 1690 0a19 0000 0000 		.long	.LFB3
 1691 0a1d 0000 0058 		.long	.LFE3-.LFB3
 1692 0a21 01        		.uleb128 0x1
 1693 0a22 9C        		.byte	0x9c
 1694 0a23 0000 0A48 		.long	0xa48
 1695 0a27 27        		.uleb128 0x27
 1696 0a28 0000 0000 		.long	.LVL25
 1697 0a2c 02        		.uleb128 0x2
 1698 0a2d 7A        		.byte	0x7a
 1699 0a2e 00        		.sleb128 0
 1700 0a2f 27        		.uleb128 0x27
 1701 0a30 0000 0000 		.long	.LVL26
 1702 0a34 02        		.uleb128 0x2
 1703 0a35 7A        		.byte	0x7a
 1704 0a36 00        		.sleb128 0
 1705 0a37 27        		.uleb128 0x27
 1706 0a38 0000 0000 		.long	.LVL27
 1707 0a3c 02        		.uleb128 0x2
 1708 0a3d 7A        		.byte	0x7a
 1709 0a3e 00        		.sleb128 0
 1710 0a3f 27        		.uleb128 0x27
 1711 0a40 0000 0000 		.long	.LVL28
 1712 0a44 02        		.uleb128 0x2
 1713 0a45 7A        		.byte	0x7a
 1714 0a46 00        		.sleb128 0
 1715 0a47 00        		.byte	0
 1716 0a48 23        		.uleb128 0x23
 1717 0a49 0000 0000 		.long	.LASF135
 1718 0a4d 01        		.byte	0x1
 1719 0a4e 3C        		.byte	0x3c
 1720 0a4f 0000 0000 		.long	.LFB6
 1721 0a53 0000 006C 		.long	.LFE6-.LFB6
 1722 0a57 01        		.uleb128 0x1
 1723 0a58 9C        		.byte	0x9c
 1724 0a59 0000 0A8E 		.long	0xa8e
 1725 0a5d 24        		.uleb128 0x24
 1726 0a5e 6B00      		.string	"k"
 1727 0a60 01        		.byte	0x1
 1728 0a61 3D        		.byte	0x3d
 1729 0a62 0000 0064 		.long	0x64
 1730 0a66 0000 0000 		.long	.LLST2
 1731 0a6a 26        		.uleb128 0x26
 1732 0a6b 0000 0000 		.long	.LVL30
 1733 0a6f 0000 0BF2 		.long	0xbf2
 1734 0a73 26        		.uleb128 0x26
 1735 0a74 0000 0000 		.long	.LVL31
 1736 0a78 0000 0BD9 		.long	0xbd9
 1737 0a7c 27        		.uleb128 0x27


 1738 0a7d 0000 0000 		.long	.LVL32
 1739 0a81 02        		.uleb128 0x2
 1740 0a82 7A        		.byte	0x7a
 1741 0a83 00        		.sleb128 0
 1742 0a84 26        		.uleb128 0x26
 1743 0a85 0000 0000 		.long	.LVL36
 1744 0a89 0000 0BE0 		.long	0xbe0
 1745 0a8d 00        		.byte	0
 1746 0a8e 29        		.uleb128 0x29
 1747 0a8f 0000 0000 		.long	.LASF157
 1748 0a93 01        		.byte	0x1
 1749 0a94 4E        		.byte	0x4e
 1750 0a95 0000 0064 		.long	0x64
 1751 0a99 0000 0000 		.long	.LFB7
 1752 0a9d 0000 0040 		.long	.LFE7-.LFB7
 1753 0aa1 01        		.uleb128 0x1
 1754 0aa2 9C        		.byte	0x9c
 1755 0aa3 0000 0ADC 		.long	0xadc
 1756 0aa7 26        		.uleb128 0x26
 1757 0aa8 0000 0000 		.long	.LVL39
 1758 0aac 0000 0A12 		.long	0xa12
 1759 0ab0 26        		.uleb128 0x26
 1760 0ab1 0000 0000 		.long	.LVL40
 1761 0ab5 0000 0C01 		.long	0xc01
 1762 0ab9 26        		.uleb128 0x26
 1763 0aba 0000 0000 		.long	.LVL41
 1764 0abe 0000 0C0C 		.long	0xc0c
 1765 0ac2 27        		.uleb128 0x27
 1766 0ac3 0000 0000 		.long	.LVL42
 1767 0ac7 02        		.uleb128 0x2
 1768 0ac8 7A        		.byte	0x7a
 1769 0ac9 00        		.sleb128 0
 1770 0aca 27        		.uleb128 0x27
 1771 0acb 0000 0000 		.long	.LVL43
 1772 0acf 02        		.uleb128 0x2
 1773 0ad0 7A        		.byte	0x7a
 1774 0ad1 00        		.sleb128 0
 1775 0ad2 26        		.uleb128 0x26
 1776 0ad3 0000 0000 		.long	.LVL44
 1777 0ad7 0000 0C17 		.long	0xc17
 1778 0adb 00        		.byte	0
 1779 0adc 2A        		.uleb128 0x2a
 1780 0add 0000 0000 		.long	.LASF136
 1781 0ae1 05        		.byte	0x5
 1782 0ae2 0307      		.word	0x307
 1783 0ae4 0000 0424 		.long	0x424
 1784 0ae8 2B        		.uleb128 0x2b
 1785 0ae9 0000 0000 		.long	.LASF137
 1786 0aed 07        		.byte	0x7
 1787 0aee 26        		.byte	0x26
 1788 0aef 0000 0889 		.long	0x889
 1789 0af3 05        		.uleb128 0x5
 1790 0af4 03        		.byte	0x3
 1791 0af5 0000 0000 		.long	curr_task
 1792 0af9 2B        		.uleb128 0x2b
 1793 0afa 0000 0000 		.long	.LASF138
 1794 0afe 07        		.byte	0x7


 1795 0aff 27        		.byte	0x27
 1796 0b00 0000 0889 		.long	0x889
 1797 0b04 05        		.uleb128 0x5
 1798 0b05 03        		.byte	0x3
 1799 0b06 0000 0000 		.long	new_task
 1800 0b0a 2B        		.uleb128 0x2b
 1801 0b0b 0000 0000 		.long	.LASF139
 1802 0b0f 07        		.byte	0x7
 1803 0b10 28        		.byte	0x28
 1804 0b11 0000 0889 		.long	0x889
 1805 0b15 05        		.uleb128 0x5
 1806 0b16 03        		.byte	0x3
 1807 0b17 0000 0000 		.long	next_task
 1808 0b1b 2B        		.uleb128 0x2b
 1809 0b1c 0000 0000 		.long	.LASF140
 1810 0b20 07        		.byte	0x7
 1811 0b21 2A        		.byte	0x2a
 1812 0b22 0000 0889 		.long	0x889
 1813 0b26 05        		.uleb128 0x5
 1814 0b27 03        		.byte	0x3
 1815 0b28 0000 0000 		.long	ready
 1816 0b2c 08        		.uleb128 0x8
 1817 0b2d 0000 08B5 		.long	0x8b5
 1818 0b31 0000 0B3C 		.long	0xb3c
 1819 0b35 09        		.uleb128 0x9
 1820 0b36 0000 00D9 		.long	0xd9
 1821 0b3a 02        		.byte	0x2
 1822 0b3b 00        		.byte	0
 1823 0b3c 2B        		.uleb128 0x2b
 1824 0b3d 0000 0000 		.long	.LASF141
 1825 0b41 07        		.byte	0x7
 1826 0b42 2C        		.byte	0x2c
 1827 0b43 0000 0B2C 		.long	0xb2c
 1828 0b47 05        		.uleb128 0x5
 1829 0b48 03        		.byte	0x3
 1830 0b49 0000 0000 		.long	semaphore
 1831 0b4d 08        		.uleb128 0x8
 1832 0b4e 0000 0912 		.long	0x912
 1833 0b52 0000 0B5D 		.long	0xb5d
 1834 0b56 09        		.uleb128 0x9
 1835 0b57 0000 00D9 		.long	0xd9
 1836 0b5b 07        		.byte	0x7
 1837 0b5c 00        		.byte	0
 1838 0b5d 2B        		.uleb128 0x2b
 1839 0b5e 0000 0000 		.long	.LASF142
 1840 0b62 07        		.byte	0x7
 1841 0b63 2D        		.byte	0x2d
 1842 0b64 0000 0B4D 		.long	0xb4d
 1843 0b68 05        		.uleb128 0x5
 1844 0b69 03        		.byte	0x3
 1845 0b6a 0000 0000 		.long	task_tab
 1846 0b6e 08        		.uleb128 0x8
 1847 0b6f 0000 0951 		.long	0x951
 1848 0b73 0000 0B7E 		.long	0xb7e
 1849 0b77 09        		.uleb128 0x9
 1850 0b78 0000 00D9 		.long	0xd9
 1851 0b7c 06        		.byte	0x6


 1852 0b7d 00        		.byte	0
 1853 0b7e 2B        		.uleb128 0x2b
 1854 0b7f 0000 0000 		.long	.LASF143
 1855 0b83 07        		.byte	0x7
 1856 0b84 2F        		.byte	0x2f
 1857 0b85 0000 0B6E 		.long	0xb6e
 1858 0b89 05        		.uleb128 0x5
 1859 0b8a 03        		.byte	0x3
 1860 0b8b 0000 0000 		.long	stacks
 1861 0b8f 2B        		.uleb128 0x2b
 1862 0b90 0000 0000 		.long	.LASF144
 1863 0b94 01        		.byte	0x1
 1864 0b95 03        		.byte	0x3
 1865 0b96 0000 0BA0 		.long	0xba0
 1866 0b9a 05        		.uleb128 0x5
 1867 0b9b 03        		.byte	0x3
 1868 0b9c 0000 0000 		.long	com0in
 1869 0ba0 0F        		.uleb128 0xf
 1870 0ba1 04        		.byte	0x4
 1871 0ba2 0000 087E 		.long	0x87e
 1872 0ba6 2B        		.uleb128 0x2b
 1873 0ba7 0000 0000 		.long	.LASF145
 1874 0bab 01        		.byte	0x1
 1875 0bac 04        		.byte	0x4
 1876 0bad 0000 0BA0 		.long	0xba0
 1877 0bb1 05        		.uleb128 0x5
 1878 0bb2 03        		.byte	0x3
 1879 0bb3 0000 0000 		.long	com0out
 1880 0bb7 2B        		.uleb128 0x2b
 1881 0bb8 0000 0000 		.long	.LASF146
 1882 0bbc 01        		.byte	0x1
 1883 0bbd 05        		.byte	0x5
 1884 0bbe 0000 0BA0 		.long	0xba0
 1885 0bc2 05        		.uleb128 0x5
 1886 0bc3 03        		.byte	0x3
 1887 0bc4 0000 0000 		.long	com1in
 1888 0bc8 2B        		.uleb128 0x2b
 1889 0bc9 0000 0000 		.long	.LASF147
 1890 0bcd 01        		.byte	0x1
 1891 0bce 06        		.byte	0x6
 1892 0bcf 0000 0BA0 		.long	0xba0
 1893 0bd3 05        		.uleb128 0x5
 1894 0bd4 03        		.byte	0x3
 1895 0bd5 0000 0000 		.long	com1out
 1896 0bd9 2C        		.uleb128 0x2c
 1897 0bda 5000      		.string	"P"
 1898 0bdc 5000      		.string	"P"
 1899 0bde 07        		.byte	0x7
 1900 0bdf 41        		.byte	0x41
 1901 0be0 2C        		.uleb128 0x2c
 1902 0be1 5600      		.string	"V"
 1903 0be3 5600      		.string	"V"
 1904 0be5 07        		.byte	0x7
 1905 0be6 42        		.byte	0x42
 1906 0be7 2D        		.uleb128 0x2d
 1907 0be8 0000 0000 		.long	.LASF148
 1908 0bec 0000 0000 		.long	.LASF148


 1909 0bf0 06        		.byte	0x6
 1910 0bf1 C4        		.byte	0xc4
 1911 0bf2 2E        		.uleb128 0x2e
 1912 0bf3 0000 0000 		.long	.LASF158
 1913 0bf7 0000 0000 		.long	.LASF159
 1914 0bfb 08        		.byte	0x8
 1915 0bfc 00        		.byte	0
 1916 0bfd 0000 0000 		.long	.LASF158
 1917 0c01 2D        		.uleb128 0x2d
 1918 0c02 0000 0000 		.long	.LASF149
 1919 0c06 0000 0000 		.long	.LASF149
 1920 0c0a 06        		.byte	0x6
 1921 0c0b C8        		.byte	0xc8
 1922 0c0c 2D        		.uleb128 0x2d
 1923 0c0d 0000 0000 		.long	.LASF150
 1924 0c11 0000 0000 		.long	.LASF150
 1925 0c15 07        		.byte	0x7
 1926 0c16 31        		.byte	0x31
 1927 0c17 2D        		.uleb128 0x2d
 1928 0c18 0000 0000 		.long	.LASF151
 1929 0c1c 0000 0000 		.long	.LASF151
 1930 0c20 07        		.byte	0x7
 1931 0c21 34        		.byte	0x34
 1932 0c22 00        		.byte	0
 1933               		.section	.debug_abbrev,"",@progbits
 1934               	.Ldebug_abbrev0:
 1935 0000 01        		.uleb128 0x1
 1936 0001 11        		.uleb128 0x11
 1937 0002 01        		.byte	0x1
 1938 0003 25        		.uleb128 0x25
 1939 0004 0E        		.uleb128 0xe
 1940 0005 13        		.uleb128 0x13
 1941 0006 0B        		.uleb128 0xb
 1942 0007 03        		.uleb128 0x3
 1943 0008 0E        		.uleb128 0xe
 1944 0009 1B        		.uleb128 0x1b
 1945 000a 0E        		.uleb128 0xe
 1946 000b 55        		.uleb128 0x55
 1947 000c 17        		.uleb128 0x17
 1948 000d 11        		.uleb128 0x11
 1949 000e 01        		.uleb128 0x1
 1950 000f 10        		.uleb128 0x10
 1951 0010 17        		.uleb128 0x17
 1952 0011 00        		.byte	0
 1953 0012 00        		.byte	0
 1954 0013 02        		.uleb128 0x2
 1955 0014 24        		.uleb128 0x24
 1956 0015 00        		.byte	0
 1957 0016 0B        		.uleb128 0xb
 1958 0017 0B        		.uleb128 0xb
 1959 0018 3E        		.uleb128 0x3e
 1960 0019 0B        		.uleb128 0xb
 1961 001a 03        		.uleb128 0x3
 1962 001b 0E        		.uleb128 0xe
 1963 001c 00        		.byte	0
 1964 001d 00        		.byte	0
 1965 001e 03        		.uleb128 0x3


 1966 001f 24        		.uleb128 0x24
 1967 0020 00        		.byte	0
 1968 0021 0B        		.uleb128 0xb
 1969 0022 0B        		.uleb128 0xb
 1970 0023 3E        		.uleb128 0x3e
 1971 0024 0B        		.uleb128 0xb
 1972 0025 03        		.uleb128 0x3
 1973 0026 08        		.uleb128 0x8
 1974 0027 00        		.byte	0
 1975 0028 00        		.byte	0
 1976 0029 04        		.uleb128 0x4
 1977 002a 16        		.uleb128 0x16
 1978 002b 00        		.byte	0
 1979 002c 03        		.uleb128 0x3
 1980 002d 0E        		.uleb128 0xe
 1981 002e 3A        		.uleb128 0x3a
 1982 002f 0B        		.uleb128 0xb
 1983 0030 3B        		.uleb128 0x3b
 1984 0031 0B        		.uleb128 0xb
 1985 0032 49        		.uleb128 0x49
 1986 0033 13        		.uleb128 0x13
 1987 0034 00        		.byte	0
 1988 0035 00        		.byte	0
 1989 0036 05        		.uleb128 0x5
 1990 0037 16        		.uleb128 0x16
 1991 0038 00        		.byte	0
 1992 0039 03        		.uleb128 0x3
 1993 003a 0E        		.uleb128 0xe
 1994 003b 3A        		.uleb128 0x3a
 1995 003c 0B        		.uleb128 0xb
 1996 003d 3B        		.uleb128 0x3b
 1997 003e 05        		.uleb128 0x5
 1998 003f 49        		.uleb128 0x49
 1999 0040 13        		.uleb128 0x13
 2000 0041 00        		.byte	0
 2001 0042 00        		.byte	0
 2002 0043 06        		.uleb128 0x6
 2003 0044 17        		.uleb128 0x17
 2004 0045 01        		.byte	0x1
 2005 0046 0B        		.uleb128 0xb
 2006 0047 0B        		.uleb128 0xb
 2007 0048 3A        		.uleb128 0x3a
 2008 0049 0B        		.uleb128 0xb
 2009 004a 3B        		.uleb128 0x3b
 2010 004b 0B        		.uleb128 0xb
 2011 004c 01        		.uleb128 0x1
 2012 004d 13        		.uleb128 0x13
 2013 004e 00        		.byte	0
 2014 004f 00        		.byte	0
 2015 0050 07        		.uleb128 0x7
 2016 0051 0D        		.uleb128 0xd
 2017 0052 00        		.byte	0
 2018 0053 03        		.uleb128 0x3
 2019 0054 0E        		.uleb128 0xe
 2020 0055 3A        		.uleb128 0x3a
 2021 0056 0B        		.uleb128 0xb
 2022 0057 3B        		.uleb128 0x3b


 2023 0058 0B        		.uleb128 0xb
 2024 0059 49        		.uleb128 0x49
 2025 005a 13        		.uleb128 0x13
 2026 005b 00        		.byte	0
 2027 005c 00        		.byte	0
 2028 005d 08        		.uleb128 0x8
 2029 005e 01        		.uleb128 0x1
 2030 005f 01        		.byte	0x1
 2031 0060 49        		.uleb128 0x49
 2032 0061 13        		.uleb128 0x13
 2033 0062 01        		.uleb128 0x1
 2034 0063 13        		.uleb128 0x13
 2035 0064 00        		.byte	0
 2036 0065 00        		.byte	0
 2037 0066 09        		.uleb128 0x9
 2038 0067 21        		.uleb128 0x21
 2039 0068 00        		.byte	0
 2040 0069 49        		.uleb128 0x49
 2041 006a 13        		.uleb128 0x13
 2042 006b 2F        		.uleb128 0x2f
 2043 006c 0B        		.uleb128 0xb
 2044 006d 00        		.byte	0
 2045 006e 00        		.byte	0
 2046 006f 0A        		.uleb128 0xa
 2047 0070 13        		.uleb128 0x13
 2048 0071 01        		.byte	0x1
 2049 0072 0B        		.uleb128 0xb
 2050 0073 0B        		.uleb128 0xb
 2051 0074 3A        		.uleb128 0x3a
 2052 0075 0B        		.uleb128 0xb
 2053 0076 3B        		.uleb128 0x3b
 2054 0077 0B        		.uleb128 0xb
 2055 0078 01        		.uleb128 0x1
 2056 0079 13        		.uleb128 0x13
 2057 007a 00        		.byte	0
 2058 007b 00        		.byte	0
 2059 007c 0B        		.uleb128 0xb
 2060 007d 0D        		.uleb128 0xd
 2061 007e 00        		.byte	0
 2062 007f 03        		.uleb128 0x3
 2063 0080 0E        		.uleb128 0xe
 2064 0081 3A        		.uleb128 0x3a
 2065 0082 0B        		.uleb128 0xb
 2066 0083 3B        		.uleb128 0x3b
 2067 0084 0B        		.uleb128 0xb
 2068 0085 49        		.uleb128 0x49
 2069 0086 13        		.uleb128 0x13
 2070 0087 38        		.uleb128 0x38
 2071 0088 0B        		.uleb128 0xb
 2072 0089 00        		.byte	0
 2073 008a 00        		.byte	0
 2074 008b 0C        		.uleb128 0xc
 2075 008c 0F        		.uleb128 0xf
 2076 008d 00        		.byte	0
 2077 008e 0B        		.uleb128 0xb
 2078 008f 0B        		.uleb128 0xb
 2079 0090 00        		.byte	0


 2080 0091 00        		.byte	0
 2081 0092 0D        		.uleb128 0xd
 2082 0093 13        		.uleb128 0x13
 2083 0094 01        		.byte	0x1
 2084 0095 03        		.uleb128 0x3
 2085 0096 0E        		.uleb128 0xe
 2086 0097 0B        		.uleb128 0xb
 2087 0098 0B        		.uleb128 0xb
 2088 0099 3A        		.uleb128 0x3a
 2089 009a 0B        		.uleb128 0xb
 2090 009b 3B        		.uleb128 0x3b
 2091 009c 0B        		.uleb128 0xb
 2092 009d 01        		.uleb128 0x1
 2093 009e 13        		.uleb128 0x13
 2094 009f 00        		.byte	0
 2095 00a0 00        		.byte	0
 2096 00a1 0E        		.uleb128 0xe
 2097 00a2 0D        		.uleb128 0xd
 2098 00a3 00        		.byte	0
 2099 00a4 03        		.uleb128 0x3
 2100 00a5 08        		.uleb128 0x8
 2101 00a6 3A        		.uleb128 0x3a
 2102 00a7 0B        		.uleb128 0xb
 2103 00a8 3B        		.uleb128 0x3b
 2104 00a9 0B        		.uleb128 0xb
 2105 00aa 49        		.uleb128 0x49
 2106 00ab 13        		.uleb128 0x13
 2107 00ac 38        		.uleb128 0x38
 2108 00ad 0B        		.uleb128 0xb
 2109 00ae 00        		.byte	0
 2110 00af 00        		.byte	0
 2111 00b0 0F        		.uleb128 0xf
 2112 00b1 0F        		.uleb128 0xf
 2113 00b2 00        		.byte	0
 2114 00b3 0B        		.uleb128 0xb
 2115 00b4 0B        		.uleb128 0xb
 2116 00b5 49        		.uleb128 0x49
 2117 00b6 13        		.uleb128 0x13
 2118 00b7 00        		.byte	0
 2119 00b8 00        		.byte	0
 2120 00b9 10        		.uleb128 0x10
 2121 00ba 13        		.uleb128 0x13
 2122 00bb 01        		.byte	0x1
 2123 00bc 03        		.uleb128 0x3
 2124 00bd 0E        		.uleb128 0xe
 2125 00be 0B        		.uleb128 0xb
 2126 00bf 05        		.uleb128 0x5
 2127 00c0 3A        		.uleb128 0x3a
 2128 00c1 0B        		.uleb128 0xb
 2129 00c2 3B        		.uleb128 0x3b
 2130 00c3 0B        		.uleb128 0xb
 2131 00c4 01        		.uleb128 0x1
 2132 00c5 13        		.uleb128 0x13
 2133 00c6 00        		.byte	0
 2134 00c7 00        		.byte	0
 2135 00c8 11        		.uleb128 0x11
 2136 00c9 0D        		.uleb128 0xd


 2137 00ca 00        		.byte	0
 2138 00cb 03        		.uleb128 0x3
 2139 00cc 0E        		.uleb128 0xe
 2140 00cd 3A        		.uleb128 0x3a
 2141 00ce 0B        		.uleb128 0xb
 2142 00cf 3B        		.uleb128 0x3b
 2143 00d0 0B        		.uleb128 0xb
 2144 00d1 49        		.uleb128 0x49
 2145 00d2 13        		.uleb128 0x13
 2146 00d3 38        		.uleb128 0x38
 2147 00d4 05        		.uleb128 0x5
 2148 00d5 00        		.byte	0
 2149 00d6 00        		.byte	0
 2150 00d7 12        		.uleb128 0x12
 2151 00d8 15        		.uleb128 0x15
 2152 00d9 00        		.byte	0
 2153 00da 27        		.uleb128 0x27
 2154 00db 19        		.uleb128 0x19
 2155 00dc 00        		.byte	0
 2156 00dd 00        		.byte	0
 2157 00de 13        		.uleb128 0x13
 2158 00df 15        		.uleb128 0x15
 2159 00e0 01        		.byte	0x1
 2160 00e1 27        		.uleb128 0x27
 2161 00e2 19        		.uleb128 0x19
 2162 00e3 49        		.uleb128 0x49
 2163 00e4 13        		.uleb128 0x13
 2164 00e5 01        		.uleb128 0x1
 2165 00e6 13        		.uleb128 0x13
 2166 00e7 00        		.byte	0
 2167 00e8 00        		.byte	0
 2168 00e9 14        		.uleb128 0x14
 2169 00ea 05        		.uleb128 0x5
 2170 00eb 00        		.byte	0
 2171 00ec 49        		.uleb128 0x49
 2172 00ed 13        		.uleb128 0x13
 2173 00ee 00        		.byte	0
 2174 00ef 00        		.byte	0
 2175 00f0 15        		.uleb128 0x15
 2176 00f1 13        		.uleb128 0x13
 2177 00f2 01        		.byte	0x1
 2178 00f3 03        		.uleb128 0x3
 2179 00f4 0E        		.uleb128 0xe
 2180 00f5 0B        		.uleb128 0xb
 2181 00f6 05        		.uleb128 0x5
 2182 00f7 3A        		.uleb128 0x3a
 2183 00f8 0B        		.uleb128 0xb
 2184 00f9 3B        		.uleb128 0x3b
 2185 00fa 05        		.uleb128 0x5
 2186 00fb 01        		.uleb128 0x1
 2187 00fc 13        		.uleb128 0x13
 2188 00fd 00        		.byte	0
 2189 00fe 00        		.byte	0
 2190 00ff 16        		.uleb128 0x16
 2191 0100 0D        		.uleb128 0xd
 2192 0101 00        		.byte	0
 2193 0102 03        		.uleb128 0x3


 2194 0103 0E        		.uleb128 0xe
 2195 0104 3A        		.uleb128 0x3a
 2196 0105 0B        		.uleb128 0xb
 2197 0106 3B        		.uleb128 0x3b
 2198 0107 05        		.uleb128 0x5
 2199 0108 49        		.uleb128 0x49
 2200 0109 13        		.uleb128 0x13
 2201 010a 38        		.uleb128 0x38
 2202 010b 0B        		.uleb128 0xb
 2203 010c 00        		.byte	0
 2204 010d 00        		.byte	0
 2205 010e 17        		.uleb128 0x17
 2206 010f 0D        		.uleb128 0xd
 2207 0110 00        		.byte	0
 2208 0111 03        		.uleb128 0x3
 2209 0112 0E        		.uleb128 0xe
 2210 0113 3A        		.uleb128 0x3a
 2211 0114 0B        		.uleb128 0xb
 2212 0115 3B        		.uleb128 0x3b
 2213 0116 05        		.uleb128 0x5
 2214 0117 49        		.uleb128 0x49
 2215 0118 13        		.uleb128 0x13
 2216 0119 38        		.uleb128 0x38
 2217 011a 05        		.uleb128 0x5
 2218 011b 00        		.byte	0
 2219 011c 00        		.byte	0
 2220 011d 18        		.uleb128 0x18
 2221 011e 26        		.uleb128 0x26
 2222 011f 00        		.byte	0
 2223 0120 49        		.uleb128 0x49
 2224 0121 13        		.uleb128 0x13
 2225 0122 00        		.byte	0
 2226 0123 00        		.byte	0
 2227 0124 19        		.uleb128 0x19
 2228 0125 13        		.uleb128 0x13
 2229 0126 01        		.byte	0x1
 2230 0127 03        		.uleb128 0x3
 2231 0128 0E        		.uleb128 0xe
 2232 0129 0B        		.uleb128 0xb
 2233 012a 0B        		.uleb128 0xb
 2234 012b 3A        		.uleb128 0x3a
 2235 012c 0B        		.uleb128 0xb
 2236 012d 3B        		.uleb128 0x3b
 2237 012e 05        		.uleb128 0x5
 2238 012f 01        		.uleb128 0x1
 2239 0130 13        		.uleb128 0x13
 2240 0131 00        		.byte	0
 2241 0132 00        		.byte	0
 2242 0133 1A        		.uleb128 0x1a
 2243 0134 13        		.uleb128 0x13
 2244 0135 01        		.byte	0x1
 2245 0136 0B        		.uleb128 0xb
 2246 0137 0B        		.uleb128 0xb
 2247 0138 3A        		.uleb128 0x3a
 2248 0139 0B        		.uleb128 0xb
 2249 013a 3B        		.uleb128 0x3b
 2250 013b 05        		.uleb128 0x5


 2251 013c 01        		.uleb128 0x1
 2252 013d 13        		.uleb128 0x13
 2253 013e 00        		.byte	0
 2254 013f 00        		.byte	0
 2255 0140 1B        		.uleb128 0x1b
 2256 0141 17        		.uleb128 0x17
 2257 0142 01        		.byte	0x1
 2258 0143 0B        		.uleb128 0xb
 2259 0144 0B        		.uleb128 0xb
 2260 0145 3A        		.uleb128 0x3a
 2261 0146 0B        		.uleb128 0xb
 2262 0147 3B        		.uleb128 0x3b
 2263 0148 05        		.uleb128 0x5
 2264 0149 01        		.uleb128 0x1
 2265 014a 13        		.uleb128 0x13
 2266 014b 00        		.byte	0
 2267 014c 00        		.byte	0
 2268 014d 1C        		.uleb128 0x1c
 2269 014e 0D        		.uleb128 0xd
 2270 014f 00        		.byte	0
 2271 0150 03        		.uleb128 0x3
 2272 0151 0E        		.uleb128 0xe
 2273 0152 3A        		.uleb128 0x3a
 2274 0153 0B        		.uleb128 0xb
 2275 0154 3B        		.uleb128 0x3b
 2276 0155 05        		.uleb128 0x5
 2277 0156 49        		.uleb128 0x49
 2278 0157 13        		.uleb128 0x13
 2279 0158 00        		.byte	0
 2280 0159 00        		.byte	0
 2281 015a 1D        		.uleb128 0x1d
 2282 015b 13        		.uleb128 0x13
 2283 015c 00        		.byte	0
 2284 015d 03        		.uleb128 0x3
 2285 015e 0E        		.uleb128 0xe
 2286 015f 3C        		.uleb128 0x3c
 2287 0160 19        		.uleb128 0x19
 2288 0161 00        		.byte	0
 2289 0162 00        		.byte	0
 2290 0163 1E        		.uleb128 0x1e
 2291 0164 15        		.uleb128 0x15
 2292 0165 01        		.byte	0x1
 2293 0166 27        		.uleb128 0x27
 2294 0167 19        		.uleb128 0x19
 2295 0168 01        		.uleb128 0x1
 2296 0169 13        		.uleb128 0x13
 2297 016a 00        		.byte	0
 2298 016b 00        		.byte	0
 2299 016c 1F        		.uleb128 0x1f
 2300 016d 15        		.uleb128 0x15
 2301 016e 01        		.byte	0x1
 2302 016f 01        		.uleb128 0x1
 2303 0170 13        		.uleb128 0x13
 2304 0171 00        		.byte	0
 2305 0172 00        		.byte	0
 2306 0173 20        		.uleb128 0x20
 2307 0174 18        		.uleb128 0x18


 2308 0175 00        		.byte	0
 2309 0176 00        		.byte	0
 2310 0177 00        		.byte	0
 2311 0178 21        		.uleb128 0x21
 2312 0179 13        		.uleb128 0x13
 2313 017a 01        		.byte	0x1
 2314 017b 0B        		.uleb128 0xb
 2315 017c 05        		.uleb128 0x5
 2316 017d 3A        		.uleb128 0x3a
 2317 017e 0B        		.uleb128 0xb
 2318 017f 3B        		.uleb128 0x3b
 2319 0180 0B        		.uleb128 0xb
 2320 0181 01        		.uleb128 0x1
 2321 0182 13        		.uleb128 0x13
 2322 0183 00        		.byte	0
 2323 0184 00        		.byte	0
 2324 0185 22        		.uleb128 0x22
 2325 0186 21        		.uleb128 0x21
 2326 0187 00        		.byte	0
 2327 0188 49        		.uleb128 0x49
 2328 0189 13        		.uleb128 0x13
 2329 018a 2F        		.uleb128 0x2f
 2330 018b 05        		.uleb128 0x5
 2331 018c 00        		.byte	0
 2332 018d 00        		.byte	0
 2333 018e 23        		.uleb128 0x23
 2334 018f 2E        		.uleb128 0x2e
 2335 0190 01        		.byte	0x1
 2336 0191 3F        		.uleb128 0x3f
 2337 0192 19        		.uleb128 0x19
 2338 0193 03        		.uleb128 0x3
 2339 0194 0E        		.uleb128 0xe
 2340 0195 3A        		.uleb128 0x3a
 2341 0196 0B        		.uleb128 0xb
 2342 0197 3B        		.uleb128 0x3b
 2343 0198 0B        		.uleb128 0xb
 2344 0199 8701      		.uleb128 0x87
 2345 019b 19        		.uleb128 0x19
 2346 019c 11        		.uleb128 0x11
 2347 019d 01        		.uleb128 0x1
 2348 019e 12        		.uleb128 0x12
 2349 019f 06        		.uleb128 0x6
 2350 01a0 40        		.uleb128 0x40
 2351 01a1 18        		.uleb128 0x18
 2352 01a2 9642      		.uleb128 0x2116
 2353 01a4 19        		.uleb128 0x19
 2354 01a5 01        		.uleb128 0x1
 2355 01a6 13        		.uleb128 0x13
 2356 01a7 00        		.byte	0
 2357 01a8 00        		.byte	0
 2358 01a9 24        		.uleb128 0x24
 2359 01aa 34        		.uleb128 0x34
 2360 01ab 00        		.byte	0
 2361 01ac 03        		.uleb128 0x3
 2362 01ad 08        		.uleb128 0x8
 2363 01ae 3A        		.uleb128 0x3a
 2364 01af 0B        		.uleb128 0xb


 2365 01b0 3B        		.uleb128 0x3b
 2366 01b1 0B        		.uleb128 0xb
 2367 01b2 49        		.uleb128 0x49
 2368 01b3 13        		.uleb128 0x13
 2369 01b4 02        		.uleb128 0x2
 2370 01b5 17        		.uleb128 0x17
 2371 01b6 00        		.byte	0
 2372 01b7 00        		.byte	0
 2373 01b8 25        		.uleb128 0x25
 2374 01b9 34        		.uleb128 0x34
 2375 01ba 00        		.byte	0
 2376 01bb 03        		.uleb128 0x3
 2377 01bc 08        		.uleb128 0x8
 2378 01bd 3A        		.uleb128 0x3a
 2379 01be 0B        		.uleb128 0xb
 2380 01bf 3B        		.uleb128 0x3b
 2381 01c0 0B        		.uleb128 0xb
 2382 01c1 49        		.uleb128 0x49
 2383 01c2 13        		.uleb128 0x13
 2384 01c3 1C        		.uleb128 0x1c
 2385 01c4 0B        		.uleb128 0xb
 2386 01c5 00        		.byte	0
 2387 01c6 00        		.byte	0
 2388 01c7 26        		.uleb128 0x26
 2389 01c8 8982 01   		.uleb128 0x4109
 2390 01cb 00        		.byte	0
 2391 01cc 11        		.uleb128 0x11
 2392 01cd 01        		.uleb128 0x1
 2393 01ce 31        		.uleb128 0x31
 2394 01cf 13        		.uleb128 0x13
 2395 01d0 00        		.byte	0
 2396 01d1 00        		.byte	0
 2397 01d2 27        		.uleb128 0x27
 2398 01d3 8982 01   		.uleb128 0x4109
 2399 01d6 00        		.byte	0
 2400 01d7 11        		.uleb128 0x11
 2401 01d8 01        		.uleb128 0x1
 2402 01d9 9342      		.uleb128 0x2113
 2403 01db 18        		.uleb128 0x18
 2404 01dc 00        		.byte	0
 2405 01dd 00        		.byte	0
 2406 01de 28        		.uleb128 0x28
 2407 01df 2E        		.uleb128 0x2e
 2408 01e0 01        		.byte	0x1
 2409 01e1 3F        		.uleb128 0x3f
 2410 01e2 19        		.uleb128 0x19
 2411 01e3 03        		.uleb128 0x3
 2412 01e4 0E        		.uleb128 0xe
 2413 01e5 3A        		.uleb128 0x3a
 2414 01e6 0B        		.uleb128 0xb
 2415 01e7 3B        		.uleb128 0x3b
 2416 01e8 0B        		.uleb128 0xb
 2417 01e9 11        		.uleb128 0x11
 2418 01ea 01        		.uleb128 0x1
 2419 01eb 12        		.uleb128 0x12
 2420 01ec 06        		.uleb128 0x6
 2421 01ed 40        		.uleb128 0x40


 2422 01ee 18        		.uleb128 0x18
 2423 01ef 9742      		.uleb128 0x2117
 2424 01f1 19        		.uleb128 0x19
 2425 01f2 01        		.uleb128 0x1
 2426 01f3 13        		.uleb128 0x13
 2427 01f4 00        		.byte	0
 2428 01f5 00        		.byte	0
 2429 01f6 29        		.uleb128 0x29
 2430 01f7 2E        		.uleb128 0x2e
 2431 01f8 01        		.byte	0x1
 2432 01f9 3F        		.uleb128 0x3f
 2433 01fa 19        		.uleb128 0x19
 2434 01fb 03        		.uleb128 0x3
 2435 01fc 0E        		.uleb128 0xe
 2436 01fd 3A        		.uleb128 0x3a
 2437 01fe 0B        		.uleb128 0xb
 2438 01ff 3B        		.uleb128 0x3b
 2439 0200 0B        		.uleb128 0xb
 2440 0201 27        		.uleb128 0x27
 2441 0202 19        		.uleb128 0x19
 2442 0203 49        		.uleb128 0x49
 2443 0204 13        		.uleb128 0x13
 2444 0205 11        		.uleb128 0x11
 2445 0206 01        		.uleb128 0x1
 2446 0207 12        		.uleb128 0x12
 2447 0208 06        		.uleb128 0x6
 2448 0209 40        		.uleb128 0x40
 2449 020a 18        		.uleb128 0x18
 2450 020b 9742      		.uleb128 0x2117
 2451 020d 19        		.uleb128 0x19
 2452 020e 01        		.uleb128 0x1
 2453 020f 13        		.uleb128 0x13
 2454 0210 00        		.byte	0
 2455 0211 00        		.byte	0
 2456 0212 2A        		.uleb128 0x2a
 2457 0213 34        		.uleb128 0x34
 2458 0214 00        		.byte	0
 2459 0215 03        		.uleb128 0x3
 2460 0216 0E        		.uleb128 0xe
 2461 0217 3A        		.uleb128 0x3a
 2462 0218 0B        		.uleb128 0xb
 2463 0219 3B        		.uleb128 0x3b
 2464 021a 05        		.uleb128 0x5
 2465 021b 49        		.uleb128 0x49
 2466 021c 13        		.uleb128 0x13
 2467 021d 3F        		.uleb128 0x3f
 2468 021e 19        		.uleb128 0x19
 2469 021f 3C        		.uleb128 0x3c
 2470 0220 19        		.uleb128 0x19
 2471 0221 00        		.byte	0
 2472 0222 00        		.byte	0
 2473 0223 2B        		.uleb128 0x2b
 2474 0224 34        		.uleb128 0x34
 2475 0225 00        		.byte	0
 2476 0226 03        		.uleb128 0x3
 2477 0227 0E        		.uleb128 0xe
 2478 0228 3A        		.uleb128 0x3a


 2479 0229 0B        		.uleb128 0xb
 2480 022a 3B        		.uleb128 0x3b
 2481 022b 0B        		.uleb128 0xb
 2482 022c 49        		.uleb128 0x49
 2483 022d 13        		.uleb128 0x13
 2484 022e 3F        		.uleb128 0x3f
 2485 022f 19        		.uleb128 0x19
 2486 0230 02        		.uleb128 0x2
 2487 0231 18        		.uleb128 0x18
 2488 0232 00        		.byte	0
 2489 0233 00        		.byte	0
 2490 0234 2C        		.uleb128 0x2c
 2491 0235 2E        		.uleb128 0x2e
 2492 0236 00        		.byte	0
 2493 0237 3F        		.uleb128 0x3f
 2494 0238 19        		.uleb128 0x19
 2495 0239 3C        		.uleb128 0x3c
 2496 023a 19        		.uleb128 0x19
 2497 023b 6E        		.uleb128 0x6e
 2498 023c 08        		.uleb128 0x8
 2499 023d 03        		.uleb128 0x3
 2500 023e 08        		.uleb128 0x8
 2501 023f 3A        		.uleb128 0x3a
 2502 0240 0B        		.uleb128 0xb
 2503 0241 3B        		.uleb128 0x3b
 2504 0242 0B        		.uleb128 0xb
 2505 0243 00        		.byte	0
 2506 0244 00        		.byte	0
 2507 0245 2D        		.uleb128 0x2d
 2508 0246 2E        		.uleb128 0x2e
 2509 0247 00        		.byte	0
 2510 0248 3F        		.uleb128 0x3f
 2511 0249 19        		.uleb128 0x19
 2512 024a 3C        		.uleb128 0x3c
 2513 024b 19        		.uleb128 0x19
 2514 024c 6E        		.uleb128 0x6e
 2515 024d 0E        		.uleb128 0xe
 2516 024e 03        		.uleb128 0x3
 2517 024f 0E        		.uleb128 0xe
 2518 0250 3A        		.uleb128 0x3a
 2519 0251 0B        		.uleb128 0xb
 2520 0252 3B        		.uleb128 0x3b
 2521 0253 0B        		.uleb128 0xb
 2522 0254 00        		.byte	0
 2523 0255 00        		.byte	0
 2524 0256 2E        		.uleb128 0x2e
 2525 0257 2E        		.uleb128 0x2e
 2526 0258 00        		.byte	0
 2527 0259 3F        		.uleb128 0x3f
 2528 025a 19        		.uleb128 0x19
 2529 025b 3C        		.uleb128 0x3c
 2530 025c 19        		.uleb128 0x19
 2531 025d 6E        		.uleb128 0x6e
 2532 025e 0E        		.uleb128 0xe
 2533 025f 03        		.uleb128 0x3
 2534 0260 0E        		.uleb128 0xe
 2535 0261 3A        		.uleb128 0x3a


 2536 0262 0B        		.uleb128 0xb
 2537 0263 3B        		.uleb128 0x3b
 2538 0264 0B        		.uleb128 0xb
 2539 0265 6E        		.uleb128 0x6e
 2540 0266 0E        		.uleb128 0xe
 2541 0267 00        		.byte	0
 2542 0268 00        		.byte	0
 2543 0269 00        		.byte	0
 2544               		.section	.debug_loc,"",@progbits
 2545               	.Ldebug_loc0:
 2546               	.LLST0:
 2547 0000 0000 0000 		.long	.LVL0
 2548 0004 0000 0000 		.long	.LVL3
 2549 0008 0002      		.word	0x2
 2550 000a 31        		.byte	0x31
 2551 000b 9F        		.byte	0x9f
 2552 000c 0000 0000 		.long	.LVL3
 2553 0010 0000 0000 		.long	.LVL8
 2554 0014 0001      		.word	0x1
 2555 0016 5A        		.byte	0x5a
 2556 0017 0000 0000 		.long	0
 2557 001b 0000 0000 		.long	0
 2558               	.LLST1:
 2559 001f 0000 0000 		.long	.LVL11
 2560 0023 0000 0000 		.long	.LVL15
 2561 0027 0004      		.word	0x4
 2562 0029 0A        		.byte	0xa
 2563 002a 4E20      		.word	0x4e20
 2564 002c 9F        		.byte	0x9f
 2565 002d 0000 0000 		.long	.LVL15
 2566 0031 0000 0000 		.long	.LFE5
 2567 0035 0001      		.word	0x1
 2568 0037 52        		.byte	0x52
 2569 0038 0000 0000 		.long	0
 2570 003c 0000 0000 		.long	0
 2571               	.LLST2:
 2572 0040 0000 0000 		.long	.LVL29
 2573 0044 0000 0000 		.long	.LVL33
 2574 0048 0006      		.word	0x6
 2575 004a 0C        		.byte	0xc
 2576 004b 0001 86A0 		.long	0x186a0
 2577 004f 9F        		.byte	0x9f
 2578 0050 0000 0000 		.long	.LVL33
 2579 0054 0000 0000 		.long	.LFE6
 2580 0058 0001      		.word	0x1
 2581 005a 52        		.byte	0x52
 2582 005b 0000 0000 		.long	0
 2583 005f 0000 0000 		.long	0
 2584               		.section	.debug_aranges,"",@progbits
 2585 0000 0000 0024 		.long	0x24
 2586 0004 0002      		.word	0x2
 2587 0006 0000 0000 		.long	.Ldebug_info0
 2588 000a 04        		.byte	0x4
 2589 000b 00        		.byte	0
 2590 000c 0000      		.word	0
 2591 000e 0000      		.word	0
 2592 0010 0000 0000 		.long	.Ltext0


 2593 0014 0000 021A 		.long	.Letext0-.Ltext0
 2594 0018 0000 0000 		.long	.LFB7
 2595 001c 0000 0040 		.long	.LFE7-.LFB7
 2596 0020 0000 0000 		.long	0
 2597 0024 0000 0000 		.long	0
 2598               		.section	.debug_ranges,"",@progbits
 2599               	.Ldebug_ranges0:
 2600 0000 0000 0000 		.long	.Ltext0
 2601 0004 0000 0000 		.long	.Letext0
 2602 0008 0000 0000 		.long	.LFB7
 2603 000c 0000 0000 		.long	.LFE7
 2604 0010 0000 0000 		.long	0
 2605 0014 0000 0000 		.long	0
 2606               		.section	.debug_line,"",@progbits
 2607               	.Ldebug_line0:
 2608 0000 0000 013A 		.section	.debug_str,"MS",@progbits,1
 2608      0002 0000 
 2608      00D5 0201 
 2608      FB0E 0D00 
 2608      0101 0101 
 2609               	.LASF40:
 2610 0000 5F64 736F 		.string	"_dso_handle"
 2610      5F68 616E 
 2610      646C 6500 
 2611               	.LASF121:
 2612 000c 636F 756E 		.string	"count"
 2612      7400 
 2613               	.LASF48:
 2614 0012 5F73 697A 		.string	"_size"
 2614      6500 
 2615               	.LASF93:
 2616 0018 5F72 616E 		.string	"_rand48"
 2616      6434 3800 
 2617               	.LASF72:
 2618 0020 5F65 6D65 		.string	"_emergency"
 2618      7267 656E 
 2618      6379 00
 2619               	.LASF143:
 2620 002b 7374 6163 		.string	"stacks"
 2620      6B73 00
 2621               	.LASF62:
 2622 0032 5F64 6174 		.string	"_data"
 2622      6100 
 2623               	.LASF113:
 2624 0038 5F77 6372 		.string	"_wcrtomb_state"
 2624      746F 6D62 
 2624      5F73 7461 
 2624      7465 00
 2625               	.LASF114:
 2626 0047 5F77 6373 		.string	"_wcsrtombs_state"
 2626      7274 6F6D 
 2626      6273 5F73 
 2626      7461 7465 
 2626      00
 2627               	.LASF149:
 2628 0058 7072 696E 		.string	"printf"
 2628      7466 00


 2629               	.LASF7:
 2630 005f 6C6F 6E67 		.string	"long long unsigned int"
 2630      206C 6F6E 
 2630      6720 756E 
 2630      7369 676E 
 2630      6564 2069 
 2631               	.LASF150:
 2632 0076 696E 6974 		.string	"init_kernel"
 2632      5F6B 6572 
 2632      6E65 6C00 
 2633               	.LASF52:
 2634 0082 5F6C 6266 		.string	"_lbfsize"
 2634      7369 7A65 
 2634      00
 2635               	.LASF155:
 2636 008b 5F5F 6C6F 		.string	"__locale_t"
 2636      6361 6C65 
 2636      5F74 00
 2637               	.LASF139:
 2638 0096 6E65 7874 		.string	"next_task"
 2638      5F74 6173 
 2638      6B00 
 2639               	.LASF111:
 2640 00a0 5F6D 6272 		.string	"_mbrtowc_state"
 2640      746F 7763 
 2640      5F73 7461 
 2640      7465 00
 2641               	.LASF128:
 2642 00af 6E65 7874 		.string	"next"
 2642      00
 2643               	.LASF106:
 2644 00b4 5F77 6374 		.string	"_wctomb_state"
 2644      6F6D 625F 
 2644      7374 6174 
 2644      6500 
 2645               	.LASF29:
 2646 00c2 5F5F 746D 		.string	"__tm_sec"
 2646      5F73 6563 
 2646      00
 2647               	.LASF6:
 2648 00cb 6C6F 6E67 		.string	"long long int"
 2648      206C 6F6E 
 2648      6720 696E 
 2648      7400 
 2649               	.LASF0:
 2650 00d9 7369 676E 		.string	"signed char"
 2650      6564 2063 
 2650      6861 7200 
 2651               	.LASF58:
 2652 00e5 5F75 6275 		.string	"_ubuf"
 2652      6600 
 2653               	.LASF148:
 2654 00eb 6670 7269 		.string	"fprintf"
 2654      6E74 6600 
 2655               	.LASF47:
 2656 00f3 5F62 6173 		.string	"_base"
 2656      6500 


 2657               	.LASF31:
 2658 00f9 5F5F 746D 		.string	"__tm_hour"
 2658      5F68 6F75 
 2658      7200 
 2659               	.LASF87:
 2660 0103 5F5F 7366 		.string	"__sf"
 2660      00
 2661               	.LASF38:
 2662 0108 5F6F 6E5F 		.string	"_on_exit_args"
 2662      6578 6974 
 2662      5F61 7267 
 2662      7300 
 2663               	.LASF53:
 2664 0116 5F63 6F6F 		.string	"_cookie"
 2664      6B69 6500 
 2665               	.LASF86:
 2666 011e 5F5F 7367 		.string	"__sglue"
 2666      6C75 6500 
 2667               	.LASF4:
 2668 0126 6C6F 6E67 		.string	"long int"
 2668      2069 6E74 
 2668      00
 2669               	.LASF50:
 2670 012f 5F66 6C61 		.string	"_flags"
 2670      6773 00
 2671               	.LASF42:
 2672 0136 5F69 735F 		.string	"_is_cxa"
 2672      6378 6100 
 2673               	.LASF68:
 2674 013e 5F73 7464 		.string	"_stdin"
 2674      696E 00
 2675               	.LASF130:
 2676 0145 7573 7461 		.string	"ustack"
 2676      636B 00
 2677               	.LASF159:
 2678 014c 5F5F 6275 		.string	"__builtin_puts"
 2678      696C 7469 
 2678      6E5F 7075 
 2678      7473 00
 2679               	.LASF60:
 2680 015b 5F62 6C6B 		.string	"_blksize"
 2680      7369 7A65 
 2680      00
 2681               	.LASF145:
 2682 0164 636F 6D30 		.string	"com0out"
 2682      6F75 7400 
 2683               	.LASF82:
 2684 016c 5F63 7674 		.string	"_cvtbuf"
 2684      6275 6600 
 2685               	.LASF61:
 2686 0174 5F6F 6666 		.string	"_offset"
 2686      7365 7400 
 2687               	.LASF124:
 2688 017c 7461 736B 		.string	"task_addr"
 2688      5F61 6464 
 2688      7200 
 2689               	.LASF131:


 2690 0186 7373 7461 		.string	"sstack"
 2690      636B 00
 2691               	.LASF112:
 2692 018d 5F6D 6273 		.string	"_mbsrtowcs_state"
 2692      7274 6F77 
 2692      6373 5F73 
 2692      7461 7465 
 2692      00
 2693               	.LASF110:
 2694 019e 5F6D 6272 		.string	"_mbrlen_state"
 2694      6C65 6E5F 
 2694      7374 6174 
 2694      6500 
 2695               	.LASF39:
 2696 01ac 5F66 6E61 		.string	"_fnargs"
 2696      7267 7300 
 2697               	.LASF152:
 2698 01b4 474E 5520 		.string	"GNU C11 5.5.0 -mcpu=68000 -msoft-float -g -O2 -fomit-frame-pointer"
 2698      4331 3120 
 2698      352E 352E 
 2698      3020 2D6D 
 2698      6370 753D 
 2699               	.LASF122:
 2700 01f7 7461 736B 		.string	"task_list"
 2700      5F6C 6973 
 2700      7400 
 2701               	.LASF45:
 2702 0201 5F66 6E73 		.string	"_fns"
 2702      00
 2703               	.LASF25:
 2704 0206 5F73 6967 		.string	"_sign"
 2704      6E00 
 2705               	.LASF21:
 2706 020c 5F66 6C6F 		.string	"_flock_t"
 2706      636B 5F74 
 2706      00
 2707               	.LASF70:
 2708 0215 5F73 7464 		.string	"_stderr"
 2708      6572 7200 
 2709               	.LASF27:
 2710 021d 5F42 6967 		.string	"_Bigint"
 2710      696E 7400 
 2711               	.LASF101:
 2712 0225 5F67 616D 		.string	"_gamma_signgam"
 2712      6D61 5F73 
 2712      6967 6E67 
 2712      616D 00
 2713               	.LASF54:
 2714 0234 5F72 6561 		.string	"_read"
 2714      6400 
 2715               	.LASF78:
 2716 023a 5F72 6573 		.string	"_result_k"
 2716      756C 745F 
 2716      6B00 
 2717               	.LASF28:
 2718 0244 5F5F 746D 		.string	"__tm"
 2718      00


 2719               	.LASF14:
 2720 0249 756E 7369 		.string	"unsigned int"
 2720      676E 6564 
 2720      2069 6E74 
 2720      00
 2721               	.LASF142:
 2722 0256 7461 736B 		.string	"task_tab"
 2722      5F74 6162 
 2722      00
 2723               	.LASF16:
 2724 025f 5F5F 7763 		.string	"__wchb"
 2724      6862 00
 2725               	.LASF69:
 2726 0266 5F73 7464 		.string	"_stdout"
 2726      6F75 7400 
 2727               	.LASF153:
 2728 026e 7465 7374 		.string	"test2.c"
 2728      322E 6300 
 2729               	.LASF81:
 2730 0276 5F63 7674 		.string	"_cvtlen"
 2730      6C65 6E00 
 2731               	.LASF137:
 2732 027e 6375 7272 		.string	"curr_task"
 2732      5F74 6173 
 2732      6B00 
 2733               	.LASF5:
 2734 0288 6C6F 6E67 		.string	"long unsigned int"
 2734      2075 6E73 
 2734      6967 6E65 
 2734      6420 696E 
 2734      7400 
 2735               	.LASF51:
 2736 029a 5F66 696C 		.string	"_file"
 2736      6500 
 2737               	.LASF123:
 2738 02a0 5345 4D41 		.string	"SEMAPHORE_TYPE"
 2738      5048 4F52 
 2738      455F 5459 
 2738      5045 00
 2739               	.LASF147:
 2740 02af 636F 6D31 		.string	"com1out"
 2740      6F75 7400 
 2741               	.LASF133:
 2742 02b7 7461 736B 		.string	"task1"
 2742      3100 
 2743               	.LASF134:
 2744 02bd 7461 736B 		.string	"task2"
 2744      3200 
 2745               	.LASF135:
 2746 02c3 7461 736B 		.string	"task3"
 2746      3300 
 2747               	.LASF91:
 2748 02c9 5F6E 696F 		.string	"_niobs"
 2748      6273 00
 2749               	.LASF3:
 2750 02d0 7368 6F72 		.string	"short unsigned int"
 2750      7420 756E 


 2750      7369 676E 
 2750      6564 2069 
 2750      6E74 00
 2751               	.LASF84:
 2752 02e3 5F61 7465 		.string	"_atexit0"
 2752      7869 7430 
 2752      00
 2753               	.LASF120:
 2754 02ec 5441 534B 		.string	"TASK_ID_TYPE"
 2754      5F49 445F 
 2754      5459 5045 
 2754      00
 2755               	.LASF108:
 2756 02f9 5F73 6967 		.string	"_signal_buf"
 2756      6E61 6C5F 
 2756      6275 6600 
 2757               	.LASF99:
 2758 0305 5F61 7363 		.string	"_asctime_buf"
 2758      7469 6D65 
 2758      5F62 7566 
 2758      00
 2759               	.LASF77:
 2760 0312 5F72 6573 		.string	"_result"
 2760      756C 7400 
 2761               	.LASF15:
 2762 031a 5F5F 7763 		.string	"__wch"
 2762      6800 
 2763               	.LASF126:
 2764 0320 7072 696F 		.string	"priority"
 2764      7269 7479 
 2764      00
 2765               	.LASF13:
 2766 0329 7769 6E74 		.string	"wint_t"
 2766      5F74 00
 2767               	.LASF63:
 2768 0330 5F6C 6F63 		.string	"_lock"
 2768      6B00 
 2769               	.LASF65:
 2770 0336 5F66 6C61 		.string	"_flags2"
 2770      6773 3200 
 2771               	.LASF125:
 2772 033e 7374 6163 		.string	"stack_ptr"
 2772      6B5F 7074 
 2772      7200 
 2773               	.LASF119:
 2774 0348 4649 4C45 		.string	"FILE"
 2774      00
 2775               	.LASF55:
 2776 034d 5F77 7269 		.string	"_write"
 2776      7465 00
 2777               	.LASF34:
 2778 0354 5F5F 746D 		.string	"__tm_year"
 2778      5F79 6561 
 2778      7200 
 2779               	.LASF158:
 2780 035e 7075 7473 		.string	"puts"
 2780      00


 2781               	.LASF117:
 2782 0363 5F6E 6D61 		.string	"_nmalloc"
 2782      6C6C 6F63 
 2782      00
 2783               	.LASF129:
 2784 036c 5443 425F 		.string	"TCB_TYPE"
 2784      5459 5045 
 2784      00
 2785               	.LASF17:
 2786 0375 7369 7A65 		.string	"sizetype"
 2786      7479 7065 
 2786      00
 2787               	.LASF116:
 2788 037e 5F6E 6578 		.string	"_nextf"
 2788      7466 00
 2789               	.LASF33:
 2790 0385 5F5F 746D 		.string	"__tm_mon"
 2790      5F6D 6F6E 
 2790      00
 2791               	.LASF43:
 2792 038e 5F61 7465 		.string	"_atexit"
 2792      7869 7400 
 2793               	.LASF75:
 2794 0396 5F5F 7364 		.string	"__sdidinit"
 2794      6964 696E 
 2794      6974 00
 2795               	.LASF10:
 2796 03a1 5F6F 6666 		.string	"_off_t"
 2796      5F74 00
 2797               	.LASF146:
 2798 03a8 636F 6D31 		.string	"com1in"
 2798      696E 00
 2799               	.LASF80:
 2800 03af 5F66 7265 		.string	"_freelist"
 2800      656C 6973 
 2800      7400 
 2801               	.LASF9:
 2802 03b9 5F4C 4F43 		.string	"_LOCK_RECURSIVE_T"
 2802      4B5F 5245 
 2802      4355 5253 
 2802      4956 455F 
 2802      5400 
 2803               	.LASF156:
 2804 03cb 696E 6974 		.string	"init_file"
 2804      5F66 696C 
 2804      6500 
 2805               	.LASF151:
 2806 03d5 6265 6769 		.string	"begin_sch"
 2806      6E5F 7363 
 2806      6800 
 2807               	.LASF141:
 2808 03df 7365 6D61 		.string	"semaphore"
 2808      7068 6F72 
 2808      6500 
 2809               	.LASF1:
 2810 03e9 756E 7369 		.string	"unsigned char"
 2810      676E 6564 


 2810      2063 6861 
 2810      7200 
 2811               	.LASF83:
 2812 03f7 5F6E 6577 		.string	"_new"
 2812      00
 2813               	.LASF144:
 2814 03fc 636F 6D30 		.string	"com0in"
 2814      696E 00
 2815               	.LASF115:
 2816 0403 5F68 5F65 		.string	"_h_errno"
 2816      7272 6E6F 
 2816      00
 2817               	.LASF2:
 2818 040c 7368 6F72 		.string	"short int"
 2818      7420 696E 
 2818      7400 
 2819               	.LASF36:
 2820 0416 5F5F 746D 		.string	"__tm_yday"
 2820      5F79 6461 
 2820      7900 
 2821               	.LASF46:
 2822 0420 5F5F 7362 		.string	"__sbuf"
 2822      7566 00
 2823               	.LASF92:
 2824 0427 5F69 6F62 		.string	"_iobs"
 2824      7300 
 2825               	.LASF89:
 2826 042d 5F5F 4649 		.string	"__FILE"
 2826      4C45 00
 2827               	.LASF20:
 2828 0434 5F6D 6273 		.string	"_mbstate_t"
 2828      7461 7465 
 2828      5F74 00
 2829               	.LASF49:
 2830 043f 5F5F 7346 		.string	"__sFILE"
 2830      494C 4500 
 2831               	.LASF64:
 2832 0447 5F6D 6273 		.string	"_mbstate"
 2832      7461 7465 
 2832      00
 2833               	.LASF102:
 2834 0450 5F72 616E 		.string	"_rand_next"
 2834      645F 6E65 
 2834      7874 00
 2835               	.LASF104:
 2836 045b 5F6D 626C 		.string	"_mblen_state"
 2836      656E 5F73 
 2836      7461 7465 
 2836      00
 2837               	.LASF71:
 2838 0468 5F69 6E63 		.string	"_inc"
 2838      00
 2839               	.LASF44:
 2840 046d 5F69 6E64 		.string	"_ind"
 2840      00
 2841               	.LASF140:
 2842 0472 7265 6164 		.string	"ready"


 2842      7900 
 2843               	.LASF74:
 2844 0478 5F6C 6F63 		.string	"_locale"
 2844      616C 6500 
 2845               	.LASF76:
 2846 0480 5F5F 636C 		.string	"__cleanup"
 2846      6561 6E75 
 2846      7000 
 2847               	.LASF73:
 2848 048a 5F75 6E73 		.string	"_unspecified_locale_info"
 2848      7065 6369 
 2848      6669 6564 
 2848      5F6C 6F63 
 2848      616C 655F 
 2849               	.LASF24:
 2850 04a3 5F6D 6178 		.string	"_maxwds"
 2850      7764 7300 
 2851               	.LASF66:
 2852 04ab 5F72 6565 		.string	"_reent"
 2852      6E74 00
 2853               	.LASF94:
 2854 04b2 5F73 6565 		.string	"_seed"
 2854      6400 
 2855               	.LASF18:
 2856 04b8 5F5F 636F 		.string	"__count"
 2856      756E 7400 
 2857               	.LASF19:
 2858 04c0 5F5F 7661 		.string	"__value"
 2858      6C75 6500 
 2859               	.LASF56:
 2860 04c8 5F73 6565 		.string	"_seek"
 2860      6B00 
 2861               	.LASF136:
 2862 04ce 5F69 6D70 		.string	"_impure_ptr"
 2862      7572 655F 
 2862      7074 7200 
 2863               	.LASF11:
 2864 04da 5F66 706F 		.string	"_fpos_t"
 2864      735F 7400 
 2865               	.LASF8:
 2866 04e2 6C6F 6E67 		.string	"long double"
 2866      2064 6F75 
 2866      626C 6500 
 2867               	.LASF67:
 2868 04ee 5F65 7272 		.string	"_errno"
 2868      6E6F 00
 2869               	.LASF88:
 2870 04f5 6368 6172 		.string	"char"
 2870      00
 2871               	.LASF30:
 2872 04fa 5F5F 746D 		.string	"__tm_min"
 2872      5F6D 696E 
 2872      00
 2873               	.LASF95:
 2874 0503 5F6D 756C 		.string	"_mult"
 2874      7400 
 2875               	.LASF132:


 2876 0509 5354 4143 		.string	"STACK_TYPE"
 2876      4B5F 5459 
 2876      5045 00
 2877               	.LASF23:
 2878 0514 5F6E 6578 		.string	"_next"
 2878      7400 
 2879               	.LASF98:
 2880 051a 5F73 7472 		.string	"_strtok_last"
 2880      746F 6B5F 
 2880      6C61 7374 
 2880      00
 2881               	.LASF154:
 2882 0527 2F68 6F6D 		.string	"/home/students/3506262308/mtk3"
 2882      652F 7374 
 2882      7564 656E 
 2882      7473 2F33 
 2882      3530 3632 
 2883               	.LASF41:
 2884 0546 5F66 6E74 		.string	"_fntypes"
 2884      7970 6573 
 2884      00
 2885               	.LASF96:
 2886 054f 5F61 6464 		.string	"_add"
 2886      00
 2887               	.LASF22:
 2888 0554 5F5F 554C 		.string	"__ULong"
 2888      6F6E 6700 
 2889               	.LASF109:
 2890 055c 5F67 6574 		.string	"_getdate_err"
 2890      6461 7465 
 2890      5F65 7272 
 2890      00
 2891               	.LASF97:
 2892 0569 5F75 6E75 		.string	"_unused_rand"
 2892      7365 645F 
 2892      7261 6E64 
 2892      00
 2893               	.LASF127:
 2894 0576 7374 6174 		.string	"status"
 2894      7573 00
 2895               	.LASF26:
 2896 057d 5F77 6473 		.string	"_wds"
 2896      00
 2897               	.LASF35:
 2898 0582 5F5F 746D 		.string	"__tm_wday"
 2898      5F77 6461 
 2898      7900 
 2899               	.LASF90:
 2900 058c 5F67 6C75 		.string	"_glue"
 2900      6500 
 2901               	.LASF12:
 2902 0592 5F73 7369 		.string	"_ssize_t"
 2902      7A65 5F74 
 2902      00
 2903               	.LASF107:
 2904 059b 5F6C 3634 		.string	"_l64a_buf"
 2904      615F 6275 


 2904      6600 
 2905               	.LASF85:
 2906 05a5 5F73 6967 		.string	"_sig_func"
 2906      5F66 756E 
 2906      6300 
 2907               	.LASF59:
 2908 05af 5F6E 6275 		.string	"_nbuf"
 2908      6600 
 2909               	.LASF118:
 2910 05b5 5F75 6E75 		.string	"_unused"
 2910      7365 6400 
 2911               	.LASF37:
 2912 05bd 5F5F 746D 		.string	"__tm_isdst"
 2912      5F69 7364 
 2912      7374 00
 2913               	.LASF100:
 2914 05c8 5F6C 6F63 		.string	"_localtime_buf"
 2914      616C 7469 
 2914      6D65 5F62 
 2914      7566 00
 2915               	.LASF57:
 2916 05d7 5F63 6C6F 		.string	"_close"
 2916      7365 00
 2917               	.LASF103:
 2918 05de 5F72 3438 		.string	"_r48"
 2918      00
 2919               	.LASF138:
 2920 05e3 6E65 775F 		.string	"new_task"
 2920      7461 736B 
 2920      00
 2921               	.LASF105:
 2922 05ec 5F6D 6274 		.string	"_mbtowc_state"
 2922      6F77 635F 
 2922      7374 6174 
 2922      6500 
 2923               	.LASF79:
 2924 05fa 5F70 3573 		.string	"_p5s"
 2924      00
 2925               	.LASF157:
 2926 05ff 6D61 696E 		.string	"main"
 2926      00
 2927               	.LASF32:
 2928 0604 5F5F 746D 		.string	"__tm_mday"
 2928      5F6D 6461 
 2928      7900 
 2929               		.ident	"GCC: (GNU) 5.5.0"


